
./vmlinux:     file format elf64-littleriscv


Disassembly of section .text:

ffffffe000200000 <_start>:
ffffffe000200000:	00005117          	auipc	sp,0x5
ffffffe000200004:	00010113          	mv	sp,sp
ffffffe000200008:	49d000ef          	jal	ra,ffffffe000200ca4 <setup_vm>
ffffffe00020000c:	0bc000ef          	jal	ra,ffffffe0002000c8 <relocate>
ffffffe000200010:	0420051b          	addiw	a0,zero,66
ffffffe000200014:	00000593          	li	a1,0
ffffffe000200018:	00000613          	li	a2,0
ffffffe00020001c:	00000693          	li	a3,0
ffffffe000200020:	00000713          	li	a4,0
ffffffe000200024:	00000793          	li	a5,0
ffffffe000200028:	00000813          	li	a6,0
ffffffe00020002c:	00100893          	li	a7,1
ffffffe000200030:	00000073          	ecall
ffffffe000200034:	5b4000ef          	jal	ra,ffffffe0002005e8 <mm_init>
ffffffe000200038:	0430051b          	addiw	a0,zero,67
ffffffe00020003c:	00000593          	li	a1,0
ffffffe000200040:	00000613          	li	a2,0
ffffffe000200044:	00000693          	li	a3,0
ffffffe000200048:	00000713          	li	a4,0
ffffffe00020004c:	00000793          	li	a5,0
ffffffe000200050:	00000813          	li	a6,0
ffffffe000200054:	00100893          	li	a7,1
ffffffe000200058:	00000073          	ecall
ffffffe00020005c:	755000ef          	jal	ra,ffffffe000200fb0 <setup_vm_final>
ffffffe000200060:	00000297          	auipc	t0,0x0
ffffffe000200064:	0c428293          	addi	t0,t0,196 # ffffffe000200124 <_traps>
ffffffe000200068:	10529073          	csrw	stvec,t0
ffffffe00020006c:	104022f3          	csrr	t0,sie
ffffffe000200070:	02000313          	li	t1,32
ffffffe000200074:	0062e2b3          	or	t0,t0,t1
ffffffe000200078:	10429073          	csrw	sie,t0
ffffffe00020007c:	c01022f3          	rdtime	t0
ffffffe000200080:	00989337          	lui	t1,0x989
ffffffe000200084:	6803031b          	addiw	t1,t1,1664
ffffffe000200088:	006282b3          	add	t0,t0,t1
ffffffe00020008c:	00028513          	mv	a0,t0
ffffffe000200090:	00000593          	li	a1,0
ffffffe000200094:	00000613          	li	a2,0
ffffffe000200098:	00000693          	li	a3,0
ffffffe00020009c:	00000713          	li	a4,0
ffffffe0002000a0:	00000793          	li	a5,0
ffffffe0002000a4:	00000813          	li	a6,0
ffffffe0002000a8:	00000893          	li	a7,0
ffffffe0002000ac:	00000073          	ecall
ffffffe0002000b0:	100022f3          	csrr	t0,sstatus
ffffffe0002000b4:	00200313          	li	t1,2
ffffffe0002000b8:	0062e2b3          	or	t0,t0,t1
ffffffe0002000bc:	10031073          	csrw	sstatus,t1
ffffffe0002000c0:	56c000ef          	jal	ra,ffffffe00020062c <task_init>
ffffffe0002000c4:	2fc0106f          	j	ffffffe0002013c0 <start_kernel>

ffffffe0002000c8 <relocate>:
ffffffe0002000c8:	fbf0039b          	addiw	t2,zero,-65
ffffffe0002000cc:	01f39393          	slli	t2,t2,0x1f
ffffffe0002000d0:	007080b3          	add	ra,ra,t2
ffffffe0002000d4:	00710133          	add	sp,sp,t2
ffffffe0002000d8:	000002b3          	add	t0,zero,zero
ffffffe0002000dc:	fff0029b          	addiw	t0,zero,-1
ffffffe0002000e0:	03f29293          	slli	t0,t0,0x3f
ffffffe0002000e4:	00006317          	auipc	t1,0x6
ffffffe0002000e8:	f1c30313          	addi	t1,t1,-228 # ffffffe000206000 <early_pgtbl>
ffffffe0002000ec:	00c35313          	srli	t1,t1,0xc
ffffffe0002000f0:	0062e2b3          	or	t0,t0,t1
ffffffe0002000f4:	18029073          	csrw	satp,t0
ffffffe0002000f8:	12000073          	sfence.vma
ffffffe0002000fc:	0410051b          	addiw	a0,zero,65
ffffffe000200100:	00000593          	li	a1,0
ffffffe000200104:	00000613          	li	a2,0
ffffffe000200108:	00000693          	li	a3,0
ffffffe00020010c:	00000713          	li	a4,0
ffffffe000200110:	00000793          	li	a5,0
ffffffe000200114:	00000813          	li	a6,0
ffffffe000200118:	00100893          	li	a7,1
ffffffe00020011c:	00000073          	ecall
ffffffe000200120:	00008067          	ret

ffffffe000200124 <_traps>:
ffffffe000200124:	00213023          	sd	sp,0(sp) # ffffffe000205000 <kmem>
ffffffe000200128:	ff810113          	addi	sp,sp,-8
ffffffe00020012c:	00113023          	sd	ra,0(sp)
ffffffe000200130:	ff810113          	addi	sp,sp,-8
ffffffe000200134:	00313023          	sd	gp,0(sp)
ffffffe000200138:	ff810113          	addi	sp,sp,-8
ffffffe00020013c:	00413023          	sd	tp,0(sp)
ffffffe000200140:	ff810113          	addi	sp,sp,-8
ffffffe000200144:	00513023          	sd	t0,0(sp)
ffffffe000200148:	ff810113          	addi	sp,sp,-8
ffffffe00020014c:	00613023          	sd	t1,0(sp)
ffffffe000200150:	ff810113          	addi	sp,sp,-8
ffffffe000200154:	00713023          	sd	t2,0(sp)
ffffffe000200158:	ff810113          	addi	sp,sp,-8
ffffffe00020015c:	00813023          	sd	s0,0(sp)
ffffffe000200160:	ff810113          	addi	sp,sp,-8
ffffffe000200164:	00913023          	sd	s1,0(sp)
ffffffe000200168:	ff810113          	addi	sp,sp,-8
ffffffe00020016c:	00a13023          	sd	a0,0(sp)
ffffffe000200170:	ff810113          	addi	sp,sp,-8
ffffffe000200174:	00b13023          	sd	a1,0(sp)
ffffffe000200178:	ff810113          	addi	sp,sp,-8
ffffffe00020017c:	00c13023          	sd	a2,0(sp)
ffffffe000200180:	ff810113          	addi	sp,sp,-8
ffffffe000200184:	00d13023          	sd	a3,0(sp)
ffffffe000200188:	ff810113          	addi	sp,sp,-8
ffffffe00020018c:	00e13023          	sd	a4,0(sp)
ffffffe000200190:	ff810113          	addi	sp,sp,-8
ffffffe000200194:	00f13023          	sd	a5,0(sp)
ffffffe000200198:	ff810113          	addi	sp,sp,-8
ffffffe00020019c:	01013023          	sd	a6,0(sp)
ffffffe0002001a0:	ff810113          	addi	sp,sp,-8
ffffffe0002001a4:	01113023          	sd	a7,0(sp)
ffffffe0002001a8:	ff810113          	addi	sp,sp,-8
ffffffe0002001ac:	01213023          	sd	s2,0(sp)
ffffffe0002001b0:	ff810113          	addi	sp,sp,-8
ffffffe0002001b4:	01313023          	sd	s3,0(sp)
ffffffe0002001b8:	ff810113          	addi	sp,sp,-8
ffffffe0002001bc:	01413023          	sd	s4,0(sp)
ffffffe0002001c0:	ff810113          	addi	sp,sp,-8
ffffffe0002001c4:	01513023          	sd	s5,0(sp)
ffffffe0002001c8:	ff810113          	addi	sp,sp,-8
ffffffe0002001cc:	01613023          	sd	s6,0(sp)
ffffffe0002001d0:	ff810113          	addi	sp,sp,-8
ffffffe0002001d4:	01713023          	sd	s7,0(sp)
ffffffe0002001d8:	ff810113          	addi	sp,sp,-8
ffffffe0002001dc:	01813023          	sd	s8,0(sp)
ffffffe0002001e0:	ff810113          	addi	sp,sp,-8
ffffffe0002001e4:	01913023          	sd	s9,0(sp)
ffffffe0002001e8:	ff810113          	addi	sp,sp,-8
ffffffe0002001ec:	01a13023          	sd	s10,0(sp)
ffffffe0002001f0:	ff810113          	addi	sp,sp,-8
ffffffe0002001f4:	01b13023          	sd	s11,0(sp)
ffffffe0002001f8:	ff810113          	addi	sp,sp,-8
ffffffe0002001fc:	01c13023          	sd	t3,0(sp)
ffffffe000200200:	ff810113          	addi	sp,sp,-8
ffffffe000200204:	01d13023          	sd	t4,0(sp)
ffffffe000200208:	ff810113          	addi	sp,sp,-8
ffffffe00020020c:	01e13023          	sd	t5,0(sp)
ffffffe000200210:	ff810113          	addi	sp,sp,-8
ffffffe000200214:	01f13023          	sd	t6,0(sp)
ffffffe000200218:	ff810113          	addi	sp,sp,-8
ffffffe00020021c:	100022f3          	csrr	t0,sstatus
ffffffe000200220:	00513023          	sd	t0,0(sp)
ffffffe000200224:	ff810113          	addi	sp,sp,-8
ffffffe000200228:	142022f3          	csrr	t0,scause
ffffffe00020022c:	00513023          	sd	t0,0(sp)
ffffffe000200230:	ff810113          	addi	sp,sp,-8
ffffffe000200234:	143022f3          	csrr	t0,stval
ffffffe000200238:	00513023          	sd	t0,0(sp)
ffffffe00020023c:	ff810113          	addi	sp,sp,-8
ffffffe000200240:	141022f3          	csrr	t0,sepc
ffffffe000200244:	00513023          	sd	t0,0(sp)
ffffffe000200248:	ff810113          	addi	sp,sp,-8
ffffffe00020024c:	14202573          	csrr	a0,scause
ffffffe000200250:	141025f3          	csrr	a1,sepc
ffffffe000200254:	1e1000ef          	jal	ra,ffffffe000200c34 <trap_handler>

ffffffe000200258 <_traps_end>:
ffffffe000200258:	00810113          	addi	sp,sp,8
ffffffe00020025c:	00013283          	ld	t0,0(sp)
ffffffe000200260:	14129073          	csrw	sepc,t0
ffffffe000200264:	00810113          	addi	sp,sp,8
ffffffe000200268:	00013283          	ld	t0,0(sp)
ffffffe00020026c:	14329073          	csrw	stval,t0
ffffffe000200270:	00810113          	addi	sp,sp,8
ffffffe000200274:	00013283          	ld	t0,0(sp)
ffffffe000200278:	14229073          	csrw	scause,t0
ffffffe00020027c:	00810113          	addi	sp,sp,8
ffffffe000200280:	00013283          	ld	t0,0(sp)
ffffffe000200284:	10029073          	csrw	sstatus,t0
ffffffe000200288:	00810113          	addi	sp,sp,8
ffffffe00020028c:	00013f83          	ld	t6,0(sp)
ffffffe000200290:	00810113          	addi	sp,sp,8
ffffffe000200294:	00013f03          	ld	t5,0(sp)
ffffffe000200298:	00810113          	addi	sp,sp,8
ffffffe00020029c:	00013e83          	ld	t4,0(sp)
ffffffe0002002a0:	00810113          	addi	sp,sp,8
ffffffe0002002a4:	00013e03          	ld	t3,0(sp)
ffffffe0002002a8:	00810113          	addi	sp,sp,8
ffffffe0002002ac:	00013d83          	ld	s11,0(sp)
ffffffe0002002b0:	00810113          	addi	sp,sp,8
ffffffe0002002b4:	00013d03          	ld	s10,0(sp)
ffffffe0002002b8:	00810113          	addi	sp,sp,8
ffffffe0002002bc:	00013c83          	ld	s9,0(sp)
ffffffe0002002c0:	00810113          	addi	sp,sp,8
ffffffe0002002c4:	00013c03          	ld	s8,0(sp)
ffffffe0002002c8:	00810113          	addi	sp,sp,8
ffffffe0002002cc:	00013b83          	ld	s7,0(sp)
ffffffe0002002d0:	00810113          	addi	sp,sp,8
ffffffe0002002d4:	00013b03          	ld	s6,0(sp)
ffffffe0002002d8:	00810113          	addi	sp,sp,8
ffffffe0002002dc:	00013a83          	ld	s5,0(sp)
ffffffe0002002e0:	00810113          	addi	sp,sp,8
ffffffe0002002e4:	00013a03          	ld	s4,0(sp)
ffffffe0002002e8:	00810113          	addi	sp,sp,8
ffffffe0002002ec:	00013983          	ld	s3,0(sp)
ffffffe0002002f0:	00810113          	addi	sp,sp,8
ffffffe0002002f4:	00013903          	ld	s2,0(sp)
ffffffe0002002f8:	00810113          	addi	sp,sp,8
ffffffe0002002fc:	00013883          	ld	a7,0(sp)
ffffffe000200300:	00810113          	addi	sp,sp,8
ffffffe000200304:	00013803          	ld	a6,0(sp)
ffffffe000200308:	00810113          	addi	sp,sp,8
ffffffe00020030c:	00013783          	ld	a5,0(sp)
ffffffe000200310:	00810113          	addi	sp,sp,8
ffffffe000200314:	00013703          	ld	a4,0(sp)
ffffffe000200318:	00810113          	addi	sp,sp,8
ffffffe00020031c:	00013683          	ld	a3,0(sp)
ffffffe000200320:	00810113          	addi	sp,sp,8
ffffffe000200324:	00013603          	ld	a2,0(sp)
ffffffe000200328:	00810113          	addi	sp,sp,8
ffffffe00020032c:	00013583          	ld	a1,0(sp)
ffffffe000200330:	00810113          	addi	sp,sp,8
ffffffe000200334:	00013503          	ld	a0,0(sp)
ffffffe000200338:	00810113          	addi	sp,sp,8
ffffffe00020033c:	00013483          	ld	s1,0(sp)
ffffffe000200340:	00810113          	addi	sp,sp,8
ffffffe000200344:	00013403          	ld	s0,0(sp)
ffffffe000200348:	00810113          	addi	sp,sp,8
ffffffe00020034c:	00013383          	ld	t2,0(sp)
ffffffe000200350:	00810113          	addi	sp,sp,8
ffffffe000200354:	00013303          	ld	t1,0(sp)
ffffffe000200358:	00810113          	addi	sp,sp,8
ffffffe00020035c:	00013283          	ld	t0,0(sp)
ffffffe000200360:	00810113          	addi	sp,sp,8
ffffffe000200364:	00013203          	ld	tp,0(sp)
ffffffe000200368:	00810113          	addi	sp,sp,8
ffffffe00020036c:	00013183          	ld	gp,0(sp)
ffffffe000200370:	00810113          	addi	sp,sp,8
ffffffe000200374:	00013083          	ld	ra,0(sp)
ffffffe000200378:	00810113          	addi	sp,sp,8
ffffffe00020037c:	00013103          	ld	sp,0(sp)
ffffffe000200380:	10200073          	sret

ffffffe000200384 <__dummy>:
ffffffe000200384:	00000297          	auipc	t0,0x0
ffffffe000200388:	79828293          	addi	t0,t0,1944 # ffffffe000200b1c <dummy>
ffffffe00020038c:	14129073          	csrw	sepc,t0
ffffffe000200390:	10200073          	sret

ffffffe000200394 <__switch_to>:
ffffffe000200394:	02153423          	sd	ra,40(a0)
ffffffe000200398:	02253823          	sd	sp,48(a0)
ffffffe00020039c:	02853c23          	sd	s0,56(a0)
ffffffe0002003a0:	04953023          	sd	s1,64(a0)
ffffffe0002003a4:	05253423          	sd	s2,72(a0)
ffffffe0002003a8:	05353823          	sd	s3,80(a0)
ffffffe0002003ac:	05453c23          	sd	s4,88(a0)
ffffffe0002003b0:	07553023          	sd	s5,96(a0)
ffffffe0002003b4:	07653423          	sd	s6,104(a0)
ffffffe0002003b8:	07753823          	sd	s7,112(a0)
ffffffe0002003bc:	07853c23          	sd	s8,120(a0)
ffffffe0002003c0:	09953023          	sd	s9,128(a0)
ffffffe0002003c4:	09a53423          	sd	s10,136(a0)
ffffffe0002003c8:	09b53823          	sd	s11,144(a0)
ffffffe0002003cc:	0285b083          	ld	ra,40(a1)
ffffffe0002003d0:	0305b103          	ld	sp,48(a1)
ffffffe0002003d4:	0385b403          	ld	s0,56(a1)
ffffffe0002003d8:	0405b483          	ld	s1,64(a1)
ffffffe0002003dc:	0485b903          	ld	s2,72(a1)
ffffffe0002003e0:	0505b983          	ld	s3,80(a1)
ffffffe0002003e4:	0585ba03          	ld	s4,88(a1)
ffffffe0002003e8:	0605ba83          	ld	s5,96(a1)
ffffffe0002003ec:	0685bb03          	ld	s6,104(a1)
ffffffe0002003f0:	0705bb83          	ld	s7,112(a1)
ffffffe0002003f4:	0785bc03          	ld	s8,120(a1)
ffffffe0002003f8:	0805bc83          	ld	s9,128(a1)
ffffffe0002003fc:	0885bd03          	ld	s10,136(a1)
ffffffe000200400:	0905bd83          	ld	s11,144(a1)
ffffffe000200404:	00008067          	ret

ffffffe000200408 <get_cycles>:
ffffffe000200408:	fe010113          	addi	sp,sp,-32
ffffffe00020040c:	00813c23          	sd	s0,24(sp)
ffffffe000200410:	02010413          	addi	s0,sp,32
ffffffe000200414:	c01027f3          	rdtime	a5
ffffffe000200418:	fef43423          	sd	a5,-24(s0)
ffffffe00020041c:	fe843783          	ld	a5,-24(s0)
ffffffe000200420:	00078513          	mv	a0,a5
ffffffe000200424:	01813403          	ld	s0,24(sp)
ffffffe000200428:	02010113          	addi	sp,sp,32
ffffffe00020042c:	00008067          	ret

ffffffe000200430 <clock_set_next_event>:
ffffffe000200430:	fe010113          	addi	sp,sp,-32
ffffffe000200434:	00113c23          	sd	ra,24(sp)
ffffffe000200438:	00813823          	sd	s0,16(sp)
ffffffe00020043c:	02010413          	addi	s0,sp,32
ffffffe000200440:	fc9ff0ef          	jal	ra,ffffffe000200408 <get_cycles>
ffffffe000200444:	00050713          	mv	a4,a0
ffffffe000200448:	00003797          	auipc	a5,0x3
ffffffe00020044c:	bb878793          	addi	a5,a5,-1096 # ffffffe000203000 <TIMECLOCK>
ffffffe000200450:	0007b783          	ld	a5,0(a5)
ffffffe000200454:	00f707b3          	add	a5,a4,a5
ffffffe000200458:	fef43423          	sd	a5,-24(s0)
ffffffe00020045c:	00000893          	li	a7,0
ffffffe000200460:	00000813          	li	a6,0
ffffffe000200464:	00000793          	li	a5,0
ffffffe000200468:	00000713          	li	a4,0
ffffffe00020046c:	00000693          	li	a3,0
ffffffe000200470:	fe843603          	ld	a2,-24(s0)
ffffffe000200474:	00000593          	li	a1,0
ffffffe000200478:	00000513          	li	a0,0
ffffffe00020047c:	740000ef          	jal	ra,ffffffe000200bbc <sbi_ecall>
ffffffe000200480:	00000013          	nop
ffffffe000200484:	01813083          	ld	ra,24(sp)
ffffffe000200488:	01013403          	ld	s0,16(sp)
ffffffe00020048c:	02010113          	addi	sp,sp,32
ffffffe000200490:	00008067          	ret

ffffffe000200494 <kalloc>:
ffffffe000200494:	fe010113          	addi	sp,sp,-32
ffffffe000200498:	00113c23          	sd	ra,24(sp)
ffffffe00020049c:	00813823          	sd	s0,16(sp)
ffffffe0002004a0:	02010413          	addi	s0,sp,32
ffffffe0002004a4:	00005797          	auipc	a5,0x5
ffffffe0002004a8:	b5c78793          	addi	a5,a5,-1188 # ffffffe000205000 <kmem>
ffffffe0002004ac:	0007b783          	ld	a5,0(a5)
ffffffe0002004b0:	fef43423          	sd	a5,-24(s0)
ffffffe0002004b4:	fe843783          	ld	a5,-24(s0)
ffffffe0002004b8:	0007b703          	ld	a4,0(a5)
ffffffe0002004bc:	00005797          	auipc	a5,0x5
ffffffe0002004c0:	b4478793          	addi	a5,a5,-1212 # ffffffe000205000 <kmem>
ffffffe0002004c4:	00e7b023          	sd	a4,0(a5)
ffffffe0002004c8:	00001637          	lui	a2,0x1
ffffffe0002004cc:	00000593          	li	a1,0
ffffffe0002004d0:	fe843503          	ld	a0,-24(s0)
ffffffe0002004d4:	1fd010ef          	jal	ra,ffffffe000201ed0 <memset>
ffffffe0002004d8:	fe843783          	ld	a5,-24(s0)
ffffffe0002004dc:	00078513          	mv	a0,a5
ffffffe0002004e0:	01813083          	ld	ra,24(sp)
ffffffe0002004e4:	01013403          	ld	s0,16(sp)
ffffffe0002004e8:	02010113          	addi	sp,sp,32
ffffffe0002004ec:	00008067          	ret

ffffffe0002004f0 <kfree>:
ffffffe0002004f0:	fd010113          	addi	sp,sp,-48
ffffffe0002004f4:	02113423          	sd	ra,40(sp)
ffffffe0002004f8:	02813023          	sd	s0,32(sp)
ffffffe0002004fc:	03010413          	addi	s0,sp,48
ffffffe000200500:	fca43c23          	sd	a0,-40(s0)
ffffffe000200504:	fd843703          	ld	a4,-40(s0)
ffffffe000200508:	fffff7b7          	lui	a5,0xfffff
ffffffe00020050c:	00f777b3          	and	a5,a4,a5
ffffffe000200510:	fcf43c23          	sd	a5,-40(s0)
ffffffe000200514:	fd843783          	ld	a5,-40(s0)
ffffffe000200518:	00001637          	lui	a2,0x1
ffffffe00020051c:	00000593          	li	a1,0
ffffffe000200520:	00078513          	mv	a0,a5
ffffffe000200524:	1ad010ef          	jal	ra,ffffffe000201ed0 <memset>
ffffffe000200528:	fd843783          	ld	a5,-40(s0)
ffffffe00020052c:	fef43423          	sd	a5,-24(s0)
ffffffe000200530:	00005797          	auipc	a5,0x5
ffffffe000200534:	ad078793          	addi	a5,a5,-1328 # ffffffe000205000 <kmem>
ffffffe000200538:	0007b703          	ld	a4,0(a5)
ffffffe00020053c:	fe843783          	ld	a5,-24(s0)
ffffffe000200540:	00e7b023          	sd	a4,0(a5)
ffffffe000200544:	00005797          	auipc	a5,0x5
ffffffe000200548:	abc78793          	addi	a5,a5,-1348 # ffffffe000205000 <kmem>
ffffffe00020054c:	fe843703          	ld	a4,-24(s0)
ffffffe000200550:	00e7b023          	sd	a4,0(a5)
ffffffe000200554:	00000013          	nop
ffffffe000200558:	02813083          	ld	ra,40(sp)
ffffffe00020055c:	02013403          	ld	s0,32(sp)
ffffffe000200560:	03010113          	addi	sp,sp,48
ffffffe000200564:	00008067          	ret

ffffffe000200568 <kfreerange>:
ffffffe000200568:	fd010113          	addi	sp,sp,-48
ffffffe00020056c:	02113423          	sd	ra,40(sp)
ffffffe000200570:	02813023          	sd	s0,32(sp)
ffffffe000200574:	03010413          	addi	s0,sp,48
ffffffe000200578:	fca43c23          	sd	a0,-40(s0)
ffffffe00020057c:	fcb43823          	sd	a1,-48(s0)
ffffffe000200580:	fd843703          	ld	a4,-40(s0)
ffffffe000200584:	000017b7          	lui	a5,0x1
ffffffe000200588:	fff78793          	addi	a5,a5,-1 # fff <_skernel-0x801ff001>
ffffffe00020058c:	00f70733          	add	a4,a4,a5
ffffffe000200590:	fffff7b7          	lui	a5,0xfffff
ffffffe000200594:	00f777b3          	and	a5,a4,a5
ffffffe000200598:	fef43423          	sd	a5,-24(s0)
ffffffe00020059c:	0200006f          	j	ffffffe0002005bc <kfreerange+0x54>
ffffffe0002005a0:	fe843783          	ld	a5,-24(s0)
ffffffe0002005a4:	00078513          	mv	a0,a5
ffffffe0002005a8:	f49ff0ef          	jal	ra,ffffffe0002004f0 <kfree>
ffffffe0002005ac:	fe843703          	ld	a4,-24(s0)
ffffffe0002005b0:	000017b7          	lui	a5,0x1
ffffffe0002005b4:	00f707b3          	add	a5,a4,a5
ffffffe0002005b8:	fef43423          	sd	a5,-24(s0)
ffffffe0002005bc:	fe843703          	ld	a4,-24(s0)
ffffffe0002005c0:	000017b7          	lui	a5,0x1
ffffffe0002005c4:	00f70733          	add	a4,a4,a5
ffffffe0002005c8:	fd043783          	ld	a5,-48(s0)
ffffffe0002005cc:	fce7fae3          	bgeu	a5,a4,ffffffe0002005a0 <kfreerange+0x38>
ffffffe0002005d0:	00000013          	nop
ffffffe0002005d4:	00000013          	nop
ffffffe0002005d8:	02813083          	ld	ra,40(sp)
ffffffe0002005dc:	02013403          	ld	s0,32(sp)
ffffffe0002005e0:	03010113          	addi	sp,sp,48
ffffffe0002005e4:	00008067          	ret

ffffffe0002005e8 <mm_init>:
ffffffe0002005e8:	ff010113          	addi	sp,sp,-16
ffffffe0002005ec:	00113423          	sd	ra,8(sp)
ffffffe0002005f0:	00813023          	sd	s0,0(sp)
ffffffe0002005f4:	01010413          	addi	s0,sp,16
ffffffe0002005f8:	c0100793          	li	a5,-1023
ffffffe0002005fc:	01b79593          	slli	a1,a5,0x1b
ffffffe000200600:	00009517          	auipc	a0,0x9
ffffffe000200604:	9a050513          	addi	a0,a0,-1632 # ffffffe000208fa0 <_ebss>
ffffffe000200608:	f61ff0ef          	jal	ra,ffffffe000200568 <kfreerange>
ffffffe00020060c:	00002517          	auipc	a0,0x2
ffffffe000200610:	9f450513          	addi	a0,a0,-1548 # ffffffe000202000 <_srodata>
ffffffe000200614:	52c010ef          	jal	ra,ffffffe000201b40 <printk>
ffffffe000200618:	00000013          	nop
ffffffe00020061c:	00813083          	ld	ra,8(sp)
ffffffe000200620:	00013403          	ld	s0,0(sp)
ffffffe000200624:	01010113          	addi	sp,sp,16
ffffffe000200628:	00008067          	ret

ffffffe00020062c <task_init>:
ffffffe00020062c:	fd010113          	addi	sp,sp,-48
ffffffe000200630:	02113423          	sd	ra,40(sp)
ffffffe000200634:	02813023          	sd	s0,32(sp)
ffffffe000200638:	00913c23          	sd	s1,24(sp)
ffffffe00020063c:	03010413          	addi	s0,sp,48
ffffffe000200640:	e55ff0ef          	jal	ra,ffffffe000200494 <kalloc>
ffffffe000200644:	00050793          	mv	a5,a0
ffffffe000200648:	00078713          	mv	a4,a5
ffffffe00020064c:	00005797          	auipc	a5,0x5
ffffffe000200650:	9bc78793          	addi	a5,a5,-1604 # ffffffe000205008 <idle>
ffffffe000200654:	00e7b023          	sd	a4,0(a5)
ffffffe000200658:	00005797          	auipc	a5,0x5
ffffffe00020065c:	9b078793          	addi	a5,a5,-1616 # ffffffe000205008 <idle>
ffffffe000200660:	0007b783          	ld	a5,0(a5)
ffffffe000200664:	0007b423          	sd	zero,8(a5)
ffffffe000200668:	00005797          	auipc	a5,0x5
ffffffe00020066c:	9a078793          	addi	a5,a5,-1632 # ffffffe000205008 <idle>
ffffffe000200670:	0007b783          	ld	a5,0(a5)
ffffffe000200674:	0007b823          	sd	zero,16(a5)
ffffffe000200678:	00005797          	auipc	a5,0x5
ffffffe00020067c:	99078793          	addi	a5,a5,-1648 # ffffffe000205008 <idle>
ffffffe000200680:	0007b783          	ld	a5,0(a5)
ffffffe000200684:	0007bc23          	sd	zero,24(a5)
ffffffe000200688:	00005797          	auipc	a5,0x5
ffffffe00020068c:	98078793          	addi	a5,a5,-1664 # ffffffe000205008 <idle>
ffffffe000200690:	0007b783          	ld	a5,0(a5)
ffffffe000200694:	0207b023          	sd	zero,32(a5)
ffffffe000200698:	00005797          	auipc	a5,0x5
ffffffe00020069c:	97078793          	addi	a5,a5,-1680 # ffffffe000205008 <idle>
ffffffe0002006a0:	0007b703          	ld	a4,0(a5)
ffffffe0002006a4:	00005797          	auipc	a5,0x5
ffffffe0002006a8:	96c78793          	addi	a5,a5,-1684 # ffffffe000205010 <current>
ffffffe0002006ac:	00e7b023          	sd	a4,0(a5)
ffffffe0002006b0:	00005797          	auipc	a5,0x5
ffffffe0002006b4:	95878793          	addi	a5,a5,-1704 # ffffffe000205008 <idle>
ffffffe0002006b8:	0007b703          	ld	a4,0(a5)
ffffffe0002006bc:	00005797          	auipc	a5,0x5
ffffffe0002006c0:	96478793          	addi	a5,a5,-1692 # ffffffe000205020 <task>
ffffffe0002006c4:	00e7b023          	sd	a4,0(a5)
ffffffe0002006c8:	00100793          	li	a5,1
ffffffe0002006cc:	fcf42e23          	sw	a5,-36(s0)
ffffffe0002006d0:	1140006f          	j	ffffffe0002007e4 <task_init+0x1b8>
ffffffe0002006d4:	dc1ff0ef          	jal	ra,ffffffe000200494 <kalloc>
ffffffe0002006d8:	00050793          	mv	a5,a0
ffffffe0002006dc:	00078693          	mv	a3,a5
ffffffe0002006e0:	00005717          	auipc	a4,0x5
ffffffe0002006e4:	94070713          	addi	a4,a4,-1728 # ffffffe000205020 <task>
ffffffe0002006e8:	fdc42783          	lw	a5,-36(s0)
ffffffe0002006ec:	00379793          	slli	a5,a5,0x3
ffffffe0002006f0:	00f707b3          	add	a5,a4,a5
ffffffe0002006f4:	00d7b023          	sd	a3,0(a5)
ffffffe0002006f8:	00005717          	auipc	a4,0x5
ffffffe0002006fc:	92870713          	addi	a4,a4,-1752 # ffffffe000205020 <task>
ffffffe000200700:	fdc42783          	lw	a5,-36(s0)
ffffffe000200704:	00379793          	slli	a5,a5,0x3
ffffffe000200708:	00f707b3          	add	a5,a4,a5
ffffffe00020070c:	0007b783          	ld	a5,0(a5)
ffffffe000200710:	0007b423          	sd	zero,8(a5)
ffffffe000200714:	00005717          	auipc	a4,0x5
ffffffe000200718:	90c70713          	addi	a4,a4,-1780 # ffffffe000205020 <task>
ffffffe00020071c:	fdc42783          	lw	a5,-36(s0)
ffffffe000200720:	00379793          	slli	a5,a5,0x3
ffffffe000200724:	00f707b3          	add	a5,a4,a5
ffffffe000200728:	0007b783          	ld	a5,0(a5)
ffffffe00020072c:	0007b823          	sd	zero,16(a5)
ffffffe000200730:	00005717          	auipc	a4,0x5
ffffffe000200734:	8f070713          	addi	a4,a4,-1808 # ffffffe000205020 <task>
ffffffe000200738:	fdc42783          	lw	a5,-36(s0)
ffffffe00020073c:	00379793          	slli	a5,a5,0x3
ffffffe000200740:	00f707b3          	add	a5,a4,a5
ffffffe000200744:	0007b483          	ld	s1,0(a5)
ffffffe000200748:	478010ef          	jal	ra,ffffffe000201bc0 <rand>
ffffffe00020074c:	00050793          	mv	a5,a0
ffffffe000200750:	00f4bc23          	sd	a5,24(s1)
ffffffe000200754:	00005717          	auipc	a4,0x5
ffffffe000200758:	8cc70713          	addi	a4,a4,-1844 # ffffffe000205020 <task>
ffffffe00020075c:	fdc42783          	lw	a5,-36(s0)
ffffffe000200760:	00379793          	slli	a5,a5,0x3
ffffffe000200764:	00f707b3          	add	a5,a4,a5
ffffffe000200768:	0007b783          	ld	a5,0(a5)
ffffffe00020076c:	fdc42703          	lw	a4,-36(s0)
ffffffe000200770:	02e7b023          	sd	a4,32(a5)
ffffffe000200774:	00005717          	auipc	a4,0x5
ffffffe000200778:	8ac70713          	addi	a4,a4,-1876 # ffffffe000205020 <task>
ffffffe00020077c:	fdc42783          	lw	a5,-36(s0)
ffffffe000200780:	00379793          	slli	a5,a5,0x3
ffffffe000200784:	00f707b3          	add	a5,a4,a5
ffffffe000200788:	0007b783          	ld	a5,0(a5)
ffffffe00020078c:	00000717          	auipc	a4,0x0
ffffffe000200790:	bf870713          	addi	a4,a4,-1032 # ffffffe000200384 <__dummy>
ffffffe000200794:	02e7b423          	sd	a4,40(a5)
ffffffe000200798:	00005717          	auipc	a4,0x5
ffffffe00020079c:	88870713          	addi	a4,a4,-1912 # ffffffe000205020 <task>
ffffffe0002007a0:	fdc42783          	lw	a5,-36(s0)
ffffffe0002007a4:	00379793          	slli	a5,a5,0x3
ffffffe0002007a8:	00f707b3          	add	a5,a4,a5
ffffffe0002007ac:	0007b783          	ld	a5,0(a5)
ffffffe0002007b0:	00078693          	mv	a3,a5
ffffffe0002007b4:	00005717          	auipc	a4,0x5
ffffffe0002007b8:	86c70713          	addi	a4,a4,-1940 # ffffffe000205020 <task>
ffffffe0002007bc:	fdc42783          	lw	a5,-36(s0)
ffffffe0002007c0:	00379793          	slli	a5,a5,0x3
ffffffe0002007c4:	00f707b3          	add	a5,a4,a5
ffffffe0002007c8:	0007b783          	ld	a5,0(a5)
ffffffe0002007cc:	00001737          	lui	a4,0x1
ffffffe0002007d0:	00e68733          	add	a4,a3,a4
ffffffe0002007d4:	02e7b823          	sd	a4,48(a5)
ffffffe0002007d8:	fdc42783          	lw	a5,-36(s0)
ffffffe0002007dc:	0017879b          	addiw	a5,a5,1
ffffffe0002007e0:	fcf42e23          	sw	a5,-36(s0)
ffffffe0002007e4:	fdc42783          	lw	a5,-36(s0)
ffffffe0002007e8:	0007871b          	sext.w	a4,a5
ffffffe0002007ec:	01f00793          	li	a5,31
ffffffe0002007f0:	eee7d2e3          	bge	a5,a4,ffffffe0002006d4 <task_init+0xa8>
ffffffe0002007f4:	00002517          	auipc	a0,0x2
ffffffe0002007f8:	82450513          	addi	a0,a0,-2012 # ffffffe000202018 <_srodata+0x18>
ffffffe0002007fc:	344010ef          	jal	ra,ffffffe000201b40 <printk>
ffffffe000200800:	00000013          	nop
ffffffe000200804:	02813083          	ld	ra,40(sp)
ffffffe000200808:	02013403          	ld	s0,32(sp)
ffffffe00020080c:	01813483          	ld	s1,24(sp)
ffffffe000200810:	03010113          	addi	sp,sp,48
ffffffe000200814:	00008067          	ret

ffffffe000200818 <switch_to>:
ffffffe000200818:	fd010113          	addi	sp,sp,-48
ffffffe00020081c:	02113423          	sd	ra,40(sp)
ffffffe000200820:	02813023          	sd	s0,32(sp)
ffffffe000200824:	03010413          	addi	s0,sp,48
ffffffe000200828:	fca43c23          	sd	a0,-40(s0)
ffffffe00020082c:	00004797          	auipc	a5,0x4
ffffffe000200830:	7e478793          	addi	a5,a5,2020 # ffffffe000205010 <current>
ffffffe000200834:	0007b783          	ld	a5,0(a5)
ffffffe000200838:	fef43423          	sd	a5,-24(s0)
ffffffe00020083c:	00004797          	auipc	a5,0x4
ffffffe000200840:	7d478793          	addi	a5,a5,2004 # ffffffe000205010 <current>
ffffffe000200844:	0007b783          	ld	a5,0(a5)
ffffffe000200848:	fd843703          	ld	a4,-40(s0)
ffffffe00020084c:	02f70063          	beq	a4,a5,ffffffe00020086c <switch_to+0x54>
ffffffe000200850:	00004797          	auipc	a5,0x4
ffffffe000200854:	7c078793          	addi	a5,a5,1984 # ffffffe000205010 <current>
ffffffe000200858:	fd843703          	ld	a4,-40(s0)
ffffffe00020085c:	00e7b023          	sd	a4,0(a5)
ffffffe000200860:	fd843583          	ld	a1,-40(s0)
ffffffe000200864:	fe843503          	ld	a0,-24(s0)
ffffffe000200868:	b2dff0ef          	jal	ra,ffffffe000200394 <__switch_to>
ffffffe00020086c:	00000013          	nop
ffffffe000200870:	02813083          	ld	ra,40(sp)
ffffffe000200874:	02013403          	ld	s0,32(sp)
ffffffe000200878:	03010113          	addi	sp,sp,48
ffffffe00020087c:	00008067          	ret

ffffffe000200880 <do_timer>:
ffffffe000200880:	ff010113          	addi	sp,sp,-16
ffffffe000200884:	00113423          	sd	ra,8(sp)
ffffffe000200888:	00813023          	sd	s0,0(sp)
ffffffe00020088c:	01010413          	addi	s0,sp,16
ffffffe000200890:	00004797          	auipc	a5,0x4
ffffffe000200894:	78078793          	addi	a5,a5,1920 # ffffffe000205010 <current>
ffffffe000200898:	0007b703          	ld	a4,0(a5)
ffffffe00020089c:	00004797          	auipc	a5,0x4
ffffffe0002008a0:	76c78793          	addi	a5,a5,1900 # ffffffe000205008 <idle>
ffffffe0002008a4:	0007b783          	ld	a5,0(a5)
ffffffe0002008a8:	00f71663          	bne	a4,a5,ffffffe0002008b4 <do_timer+0x34>
ffffffe0002008ac:	050000ef          	jal	ra,ffffffe0002008fc <schedule>
ffffffe0002008b0:	03c0006f          	j	ffffffe0002008ec <do_timer+0x6c>
ffffffe0002008b4:	00004797          	auipc	a5,0x4
ffffffe0002008b8:	75c78793          	addi	a5,a5,1884 # ffffffe000205010 <current>
ffffffe0002008bc:	0007b783          	ld	a5,0(a5)
ffffffe0002008c0:	0107b703          	ld	a4,16(a5)
ffffffe0002008c4:	fff70713          	addi	a4,a4,-1 # fff <_skernel-0x801ff001>
ffffffe0002008c8:	00e7b823          	sd	a4,16(a5)
ffffffe0002008cc:	00004797          	auipc	a5,0x4
ffffffe0002008d0:	74478793          	addi	a5,a5,1860 # ffffffe000205010 <current>
ffffffe0002008d4:	0007b783          	ld	a5,0(a5)
ffffffe0002008d8:	0107b783          	ld	a5,16(a5)
ffffffe0002008dc:	00079663          	bnez	a5,ffffffe0002008e8 <do_timer+0x68>
ffffffe0002008e0:	01c000ef          	jal	ra,ffffffe0002008fc <schedule>
ffffffe0002008e4:	0080006f          	j	ffffffe0002008ec <do_timer+0x6c>
ffffffe0002008e8:	00000013          	nop
ffffffe0002008ec:	00813083          	ld	ra,8(sp)
ffffffe0002008f0:	00013403          	ld	s0,0(sp)
ffffffe0002008f4:	01010113          	addi	sp,sp,16
ffffffe0002008f8:	00008067          	ret

ffffffe0002008fc <schedule>:
ffffffe0002008fc:	fe010113          	addi	sp,sp,-32
ffffffe000200900:	00113c23          	sd	ra,24(sp)
ffffffe000200904:	00813823          	sd	s0,16(sp)
ffffffe000200908:	02010413          	addi	s0,sp,32
ffffffe00020090c:	fe042623          	sw	zero,-20(s0)
ffffffe000200910:	fe042423          	sw	zero,-24(s0)
ffffffe000200914:	00100793          	li	a5,1
ffffffe000200918:	fef42223          	sw	a5,-28(s0)
ffffffe00020091c:	07c0006f          	j	ffffffe000200998 <schedule+0x9c>
ffffffe000200920:	00004717          	auipc	a4,0x4
ffffffe000200924:	70070713          	addi	a4,a4,1792 # ffffffe000205020 <task>
ffffffe000200928:	fe442783          	lw	a5,-28(s0)
ffffffe00020092c:	00379793          	slli	a5,a5,0x3
ffffffe000200930:	00f707b3          	add	a5,a4,a5
ffffffe000200934:	0007b783          	ld	a5,0(a5)
ffffffe000200938:	0087b783          	ld	a5,8(a5)
ffffffe00020093c:	04079863          	bnez	a5,ffffffe00020098c <schedule+0x90>
ffffffe000200940:	00004717          	auipc	a4,0x4
ffffffe000200944:	6e070713          	addi	a4,a4,1760 # ffffffe000205020 <task>
ffffffe000200948:	fe442783          	lw	a5,-28(s0)
ffffffe00020094c:	00379793          	slli	a5,a5,0x3
ffffffe000200950:	00f707b3          	add	a5,a4,a5
ffffffe000200954:	0007b783          	ld	a5,0(a5)
ffffffe000200958:	0107b703          	ld	a4,16(a5)
ffffffe00020095c:	fec42783          	lw	a5,-20(s0)
ffffffe000200960:	02e7f663          	bgeu	a5,a4,ffffffe00020098c <schedule+0x90>
ffffffe000200964:	00004717          	auipc	a4,0x4
ffffffe000200968:	6bc70713          	addi	a4,a4,1724 # ffffffe000205020 <task>
ffffffe00020096c:	fe442783          	lw	a5,-28(s0)
ffffffe000200970:	00379793          	slli	a5,a5,0x3
ffffffe000200974:	00f707b3          	add	a5,a4,a5
ffffffe000200978:	0007b783          	ld	a5,0(a5)
ffffffe00020097c:	0107b783          	ld	a5,16(a5)
ffffffe000200980:	fef42623          	sw	a5,-20(s0)
ffffffe000200984:	fe442783          	lw	a5,-28(s0)
ffffffe000200988:	fef42423          	sw	a5,-24(s0)
ffffffe00020098c:	fe442783          	lw	a5,-28(s0)
ffffffe000200990:	0017879b          	addiw	a5,a5,1
ffffffe000200994:	fef42223          	sw	a5,-28(s0)
ffffffe000200998:	fe442783          	lw	a5,-28(s0)
ffffffe00020099c:	0007871b          	sext.w	a4,a5
ffffffe0002009a0:	01f00793          	li	a5,31
ffffffe0002009a4:	f6e7dee3          	bge	a5,a4,ffffffe000200920 <schedule+0x24>
ffffffe0002009a8:	fec42783          	lw	a5,-20(s0)
ffffffe0002009ac:	0007879b          	sext.w	a5,a5
ffffffe0002009b0:	06078c63          	beqz	a5,ffffffe000200a28 <schedule+0x12c>
ffffffe0002009b4:	00004717          	auipc	a4,0x4
ffffffe0002009b8:	66c70713          	addi	a4,a4,1644 # ffffffe000205020 <task>
ffffffe0002009bc:	fe842783          	lw	a5,-24(s0)
ffffffe0002009c0:	00379793          	slli	a5,a5,0x3
ffffffe0002009c4:	00f707b3          	add	a5,a4,a5
ffffffe0002009c8:	0007b783          	ld	a5,0(a5)
ffffffe0002009cc:	0187b603          	ld	a2,24(a5)
ffffffe0002009d0:	00004717          	auipc	a4,0x4
ffffffe0002009d4:	65070713          	addi	a4,a4,1616 # ffffffe000205020 <task>
ffffffe0002009d8:	fe842783          	lw	a5,-24(s0)
ffffffe0002009dc:	00379793          	slli	a5,a5,0x3
ffffffe0002009e0:	00f707b3          	add	a5,a4,a5
ffffffe0002009e4:	0007b783          	ld	a5,0(a5)
ffffffe0002009e8:	0107b703          	ld	a4,16(a5)
ffffffe0002009ec:	fe842783          	lw	a5,-24(s0)
ffffffe0002009f0:	00070693          	mv	a3,a4
ffffffe0002009f4:	00078593          	mv	a1,a5
ffffffe0002009f8:	00001517          	auipc	a0,0x1
ffffffe0002009fc:	63850513          	addi	a0,a0,1592 # ffffffe000202030 <_srodata+0x30>
ffffffe000200a00:	140010ef          	jal	ra,ffffffe000201b40 <printk>
ffffffe000200a04:	00004717          	auipc	a4,0x4
ffffffe000200a08:	61c70713          	addi	a4,a4,1564 # ffffffe000205020 <task>
ffffffe000200a0c:	fe842783          	lw	a5,-24(s0)
ffffffe000200a10:	00379793          	slli	a5,a5,0x3
ffffffe000200a14:	00f707b3          	add	a5,a4,a5
ffffffe000200a18:	0007b783          	ld	a5,0(a5)
ffffffe000200a1c:	00078513          	mv	a0,a5
ffffffe000200a20:	df9ff0ef          	jal	ra,ffffffe000200818 <switch_to>
ffffffe000200a24:	0e80006f          	j	ffffffe000200b0c <schedule+0x210>
ffffffe000200a28:	00001517          	auipc	a0,0x1
ffffffe000200a2c:	64050513          	addi	a0,a0,1600 # ffffffe000202068 <_srodata+0x68>
ffffffe000200a30:	110010ef          	jal	ra,ffffffe000201b40 <printk>
ffffffe000200a34:	00100793          	li	a5,1
ffffffe000200a38:	fef42023          	sw	a5,-32(s0)
ffffffe000200a3c:	0bc0006f          	j	ffffffe000200af8 <schedule+0x1fc>
ffffffe000200a40:	00004717          	auipc	a4,0x4
ffffffe000200a44:	5e070713          	addi	a4,a4,1504 # ffffffe000205020 <task>
ffffffe000200a48:	fe042783          	lw	a5,-32(s0)
ffffffe000200a4c:	00379793          	slli	a5,a5,0x3
ffffffe000200a50:	00f707b3          	add	a5,a4,a5
ffffffe000200a54:	0007b783          	ld	a5,0(a5)
ffffffe000200a58:	0107b783          	ld	a5,16(a5)
ffffffe000200a5c:	0017d693          	srli	a3,a5,0x1
ffffffe000200a60:	00004717          	auipc	a4,0x4
ffffffe000200a64:	5c070713          	addi	a4,a4,1472 # ffffffe000205020 <task>
ffffffe000200a68:	fe042783          	lw	a5,-32(s0)
ffffffe000200a6c:	00379793          	slli	a5,a5,0x3
ffffffe000200a70:	00f707b3          	add	a5,a4,a5
ffffffe000200a74:	0007b783          	ld	a5,0(a5)
ffffffe000200a78:	0187b703          	ld	a4,24(a5)
ffffffe000200a7c:	00004617          	auipc	a2,0x4
ffffffe000200a80:	5a460613          	addi	a2,a2,1444 # ffffffe000205020 <task>
ffffffe000200a84:	fe042783          	lw	a5,-32(s0)
ffffffe000200a88:	00379793          	slli	a5,a5,0x3
ffffffe000200a8c:	00f607b3          	add	a5,a2,a5
ffffffe000200a90:	0007b783          	ld	a5,0(a5)
ffffffe000200a94:	00e68733          	add	a4,a3,a4
ffffffe000200a98:	00e7b823          	sd	a4,16(a5)
ffffffe000200a9c:	00004717          	auipc	a4,0x4
ffffffe000200aa0:	58470713          	addi	a4,a4,1412 # ffffffe000205020 <task>
ffffffe000200aa4:	fe042783          	lw	a5,-32(s0)
ffffffe000200aa8:	00379793          	slli	a5,a5,0x3
ffffffe000200aac:	00f707b3          	add	a5,a4,a5
ffffffe000200ab0:	0007b783          	ld	a5,0(a5)
ffffffe000200ab4:	0187b603          	ld	a2,24(a5)
ffffffe000200ab8:	00004717          	auipc	a4,0x4
ffffffe000200abc:	56870713          	addi	a4,a4,1384 # ffffffe000205020 <task>
ffffffe000200ac0:	fe042783          	lw	a5,-32(s0)
ffffffe000200ac4:	00379793          	slli	a5,a5,0x3
ffffffe000200ac8:	00f707b3          	add	a5,a4,a5
ffffffe000200acc:	0007b783          	ld	a5,0(a5)
ffffffe000200ad0:	0107b703          	ld	a4,16(a5)
ffffffe000200ad4:	fe042783          	lw	a5,-32(s0)
ffffffe000200ad8:	00070693          	mv	a3,a4
ffffffe000200adc:	00078593          	mv	a1,a5
ffffffe000200ae0:	00001517          	auipc	a0,0x1
ffffffe000200ae4:	59050513          	addi	a0,a0,1424 # ffffffe000202070 <_srodata+0x70>
ffffffe000200ae8:	058010ef          	jal	ra,ffffffe000201b40 <printk>
ffffffe000200aec:	fe042783          	lw	a5,-32(s0)
ffffffe000200af0:	0017879b          	addiw	a5,a5,1
ffffffe000200af4:	fef42023          	sw	a5,-32(s0)
ffffffe000200af8:	fe042783          	lw	a5,-32(s0)
ffffffe000200afc:	0007871b          	sext.w	a4,a5
ffffffe000200b00:	01f00793          	li	a5,31
ffffffe000200b04:	f2e7dee3          	bge	a5,a4,ffffffe000200a40 <schedule+0x144>
ffffffe000200b08:	df5ff0ef          	jal	ra,ffffffe0002008fc <schedule>
ffffffe000200b0c:	01813083          	ld	ra,24(sp)
ffffffe000200b10:	01013403          	ld	s0,16(sp)
ffffffe000200b14:	02010113          	addi	sp,sp,32
ffffffe000200b18:	00008067          	ret

ffffffe000200b1c <dummy>:
ffffffe000200b1c:	fd010113          	addi	sp,sp,-48
ffffffe000200b20:	02113423          	sd	ra,40(sp)
ffffffe000200b24:	02813023          	sd	s0,32(sp)
ffffffe000200b28:	03010413          	addi	s0,sp,48
ffffffe000200b2c:	3b9ad7b7          	lui	a5,0x3b9ad
ffffffe000200b30:	a0778793          	addi	a5,a5,-1529 # 3b9aca07 <_skernel-0x448535f9>
ffffffe000200b34:	fcf43c23          	sd	a5,-40(s0)
ffffffe000200b38:	fe043423          	sd	zero,-24(s0)
ffffffe000200b3c:	fff00793          	li	a5,-1
ffffffe000200b40:	fef42223          	sw	a5,-28(s0)
ffffffe000200b44:	fe442783          	lw	a5,-28(s0)
ffffffe000200b48:	0007871b          	sext.w	a4,a5
ffffffe000200b4c:	fff00793          	li	a5,-1
ffffffe000200b50:	00f70e63          	beq	a4,a5,ffffffe000200b6c <dummy+0x50>
ffffffe000200b54:	00004797          	auipc	a5,0x4
ffffffe000200b58:	4bc78793          	addi	a5,a5,1212 # ffffffe000205010 <current>
ffffffe000200b5c:	0007b783          	ld	a5,0(a5)
ffffffe000200b60:	0107b703          	ld	a4,16(a5)
ffffffe000200b64:	fe442783          	lw	a5,-28(s0)
ffffffe000200b68:	fcf70ee3          	beq	a4,a5,ffffffe000200b44 <dummy+0x28>
ffffffe000200b6c:	00004797          	auipc	a5,0x4
ffffffe000200b70:	4a478793          	addi	a5,a5,1188 # ffffffe000205010 <current>
ffffffe000200b74:	0007b783          	ld	a5,0(a5)
ffffffe000200b78:	0107b783          	ld	a5,16(a5)
ffffffe000200b7c:	fef42223          	sw	a5,-28(s0)
ffffffe000200b80:	fe843783          	ld	a5,-24(s0)
ffffffe000200b84:	00178713          	addi	a4,a5,1
ffffffe000200b88:	fd843783          	ld	a5,-40(s0)
ffffffe000200b8c:	02f777b3          	remu	a5,a4,a5
ffffffe000200b90:	fef43423          	sd	a5,-24(s0)
ffffffe000200b94:	00004797          	auipc	a5,0x4
ffffffe000200b98:	47c78793          	addi	a5,a5,1148 # ffffffe000205010 <current>
ffffffe000200b9c:	0007b783          	ld	a5,0(a5)
ffffffe000200ba0:	0207b783          	ld	a5,32(a5)
ffffffe000200ba4:	fe843603          	ld	a2,-24(s0)
ffffffe000200ba8:	00078593          	mv	a1,a5
ffffffe000200bac:	00001517          	auipc	a0,0x1
ffffffe000200bb0:	4f450513          	addi	a0,a0,1268 # ffffffe0002020a0 <_srodata+0xa0>
ffffffe000200bb4:	78d000ef          	jal	ra,ffffffe000201b40 <printk>
ffffffe000200bb8:	f8dff06f          	j	ffffffe000200b44 <dummy+0x28>

ffffffe000200bbc <sbi_ecall>:
ffffffe000200bbc:	fa010113          	addi	sp,sp,-96
ffffffe000200bc0:	04813c23          	sd	s0,88(sp)
ffffffe000200bc4:	06010413          	addi	s0,sp,96
ffffffe000200bc8:	fcc43823          	sd	a2,-48(s0)
ffffffe000200bcc:	fcd43423          	sd	a3,-56(s0)
ffffffe000200bd0:	fce43023          	sd	a4,-64(s0)
ffffffe000200bd4:	faf43c23          	sd	a5,-72(s0)
ffffffe000200bd8:	fb043823          	sd	a6,-80(s0)
ffffffe000200bdc:	fb143423          	sd	a7,-88(s0)
ffffffe000200be0:	00050793          	mv	a5,a0
ffffffe000200be4:	fcf42e23          	sw	a5,-36(s0)
ffffffe000200be8:	00058793          	mv	a5,a1
ffffffe000200bec:	fcf42c23          	sw	a5,-40(s0)
ffffffe000200bf0:	fd043503          	ld	a0,-48(s0)
ffffffe000200bf4:	fc843583          	ld	a1,-56(s0)
ffffffe000200bf8:	fc043603          	ld	a2,-64(s0)
ffffffe000200bfc:	fb843683          	ld	a3,-72(s0)
ffffffe000200c00:	fb043703          	ld	a4,-80(s0)
ffffffe000200c04:	fa843783          	ld	a5,-88(s0)
ffffffe000200c08:	fd842803          	lw	a6,-40(s0)
ffffffe000200c0c:	fdc42883          	lw	a7,-36(s0)
ffffffe000200c10:	00000073          	ecall
ffffffe000200c14:	fee43023          	sd	a4,-32(s0)
ffffffe000200c18:	fef43423          	sd	a5,-24(s0)
ffffffe000200c1c:	00000013          	nop
ffffffe000200c20:	00070513          	mv	a0,a4
ffffffe000200c24:	00078593          	mv	a1,a5
ffffffe000200c28:	05813403          	ld	s0,88(sp)
ffffffe000200c2c:	06010113          	addi	sp,sp,96
ffffffe000200c30:	00008067          	ret

ffffffe000200c34 <trap_handler>:
ffffffe000200c34:	fe010113          	addi	sp,sp,-32
ffffffe000200c38:	00113c23          	sd	ra,24(sp)
ffffffe000200c3c:	00813823          	sd	s0,16(sp)
ffffffe000200c40:	02010413          	addi	s0,sp,32
ffffffe000200c44:	fea43423          	sd	a0,-24(s0)
ffffffe000200c48:	feb43023          	sd	a1,-32(s0)
ffffffe000200c4c:	fe843783          	ld	a5,-24(s0)
ffffffe000200c50:	0207d863          	bgez	a5,ffffffe000200c80 <trap_handler+0x4c>
ffffffe000200c54:	fe843703          	ld	a4,-24(s0)
ffffffe000200c58:	fff00793          	li	a5,-1
ffffffe000200c5c:	03f79793          	slli	a5,a5,0x3f
ffffffe000200c60:	00578793          	addi	a5,a5,5
ffffffe000200c64:	02f71663          	bne	a4,a5,ffffffe000200c90 <trap_handler+0x5c>
ffffffe000200c68:	00001517          	auipc	a0,0x1
ffffffe000200c6c:	46850513          	addi	a0,a0,1128 # ffffffe0002020d0 <_srodata+0xd0>
ffffffe000200c70:	6d1000ef          	jal	ra,ffffffe000201b40 <printk>
ffffffe000200c74:	fbcff0ef          	jal	ra,ffffffe000200430 <clock_set_next_event>
ffffffe000200c78:	c09ff0ef          	jal	ra,ffffffe000200880 <do_timer>
ffffffe000200c7c:	0140006f          	j	ffffffe000200c90 <trap_handler+0x5c>
ffffffe000200c80:	fe843583          	ld	a1,-24(s0)
ffffffe000200c84:	00001517          	auipc	a0,0x1
ffffffe000200c88:	47450513          	addi	a0,a0,1140 # ffffffe0002020f8 <_srodata+0xf8>
ffffffe000200c8c:	6b5000ef          	jal	ra,ffffffe000201b40 <printk>
ffffffe000200c90:	00000013          	nop
ffffffe000200c94:	01813083          	ld	ra,24(sp)
ffffffe000200c98:	01013403          	ld	s0,16(sp)
ffffffe000200c9c:	02010113          	addi	sp,sp,32
ffffffe000200ca0:	00008067          	ret

ffffffe000200ca4 <setup_vm>:
ffffffe000200ca4:	fa010113          	addi	sp,sp,-96
ffffffe000200ca8:	04113c23          	sd	ra,88(sp)
ffffffe000200cac:	04813823          	sd	s0,80(sp)
ffffffe000200cb0:	06010413          	addi	s0,sp,96
ffffffe000200cb4:	00001637          	lui	a2,0x1
ffffffe000200cb8:	00000593          	li	a1,0
ffffffe000200cbc:	00005517          	auipc	a0,0x5
ffffffe000200cc0:	34450513          	addi	a0,a0,836 # ffffffe000206000 <early_pgtbl>
ffffffe000200cc4:	20c010ef          	jal	ra,ffffffe000201ed0 <memset>
ffffffe000200cc8:	00100793          	li	a5,1
ffffffe000200ccc:	01f79793          	slli	a5,a5,0x1f
ffffffe000200cd0:	fcf43023          	sd	a5,-64(s0)
ffffffe000200cd4:	fc040793          	addi	a5,s0,-64
ffffffe000200cd8:	0007b783          	ld	a5,0(a5)
ffffffe000200cdc:	fcf43823          	sd	a5,-48(s0)
ffffffe000200ce0:	fd043783          	ld	a5,-48(s0)
ffffffe000200ce4:	00c7d793          	srli	a5,a5,0xc
ffffffe000200ce8:	fff00713          	li	a4,-1
ffffffe000200cec:	01475713          	srli	a4,a4,0x14
ffffffe000200cf0:	00e7f7b3          	and	a5,a5,a4
ffffffe000200cf4:	fd043703          	ld	a4,-48(s0)
ffffffe000200cf8:	00070693          	mv	a3,a4
ffffffe000200cfc:	00001737          	lui	a4,0x1
ffffffe000200d00:	fff70713          	addi	a4,a4,-1 # fff <_skernel-0x801ff001>
ffffffe000200d04:	00e6f733          	and	a4,a3,a4
ffffffe000200d08:	03071713          	slli	a4,a4,0x30
ffffffe000200d0c:	03075713          	srli	a4,a4,0x30
ffffffe000200d10:	0007071b          	sext.w	a4,a4
ffffffe000200d14:	00070613          	mv	a2,a4
ffffffe000200d18:	00078593          	mv	a1,a5
ffffffe000200d1c:	00001517          	auipc	a0,0x1
ffffffe000200d20:	3ec50513          	addi	a0,a0,1004 # ffffffe000202108 <_srodata+0x108>
ffffffe000200d24:	61d000ef          	jal	ra,ffffffe000201b40 <printk>
ffffffe000200d28:	fd043783          	ld	a5,-48(s0)
ffffffe000200d2c:	00c7d793          	srli	a5,a5,0xc
ffffffe000200d30:	fff00713          	li	a4,-1
ffffffe000200d34:	01475713          	srli	a4,a4,0x14
ffffffe000200d38:	00e7f7b3          	and	a5,a5,a4
ffffffe000200d3c:	fef42623          	sw	a5,-20(s0)
ffffffe000200d40:	fc043783          	ld	a5,-64(s0)
ffffffe000200d44:	faf43c23          	sd	a5,-72(s0)
ffffffe000200d48:	fc043703          	ld	a4,-64(s0)
ffffffe000200d4c:	fbf00793          	li	a5,-65
ffffffe000200d50:	01f79793          	slli	a5,a5,0x1f
ffffffe000200d54:	00f707b3          	add	a5,a4,a5
ffffffe000200d58:	faf43823          	sd	a5,-80(s0)
ffffffe000200d5c:	fb840793          	addi	a5,s0,-72
ffffffe000200d60:	0007b783          	ld	a5,0(a5)
ffffffe000200d64:	faf43423          	sd	a5,-88(s0)
ffffffe000200d68:	fb040793          	addi	a5,s0,-80
ffffffe000200d6c:	0007b783          	ld	a5,0(a5)
ffffffe000200d70:	faf43023          	sd	a5,-96(s0)
ffffffe000200d74:	fa843783          	ld	a5,-88(s0)
ffffffe000200d78:	01e7d793          	srli	a5,a5,0x1e
ffffffe000200d7c:	1ff7f793          	andi	a5,a5,511
ffffffe000200d80:	03079793          	slli	a5,a5,0x30
ffffffe000200d84:	0307d793          	srli	a5,a5,0x30
ffffffe000200d88:	0007871b          	sext.w	a4,a5
ffffffe000200d8c:	fa043783          	ld	a5,-96(s0)
ffffffe000200d90:	01e7d793          	srli	a5,a5,0x1e
ffffffe000200d94:	1ff7f793          	andi	a5,a5,511
ffffffe000200d98:	03079793          	slli	a5,a5,0x30
ffffffe000200d9c:	0307d793          	srli	a5,a5,0x30
ffffffe000200da0:	0007879b          	sext.w	a5,a5
ffffffe000200da4:	00078613          	mv	a2,a5
ffffffe000200da8:	00070593          	mv	a1,a4
ffffffe000200dac:	00001517          	auipc	a0,0x1
ffffffe000200db0:	37c50513          	addi	a0,a0,892 # ffffffe000202128 <_srodata+0x128>
ffffffe000200db4:	58d000ef          	jal	ra,ffffffe000201b40 <printk>
ffffffe000200db8:	fa843783          	ld	a5,-88(s0)
ffffffe000200dbc:	01e7d793          	srli	a5,a5,0x1e
ffffffe000200dc0:	1ff7f793          	andi	a5,a5,511
ffffffe000200dc4:	03079793          	slli	a5,a5,0x30
ffffffe000200dc8:	0307d793          	srli	a5,a5,0x30
ffffffe000200dcc:	0007879b          	sext.w	a5,a5
ffffffe000200dd0:	00379713          	slli	a4,a5,0x3
ffffffe000200dd4:	00005797          	auipc	a5,0x5
ffffffe000200dd8:	22c78793          	addi	a5,a5,556 # ffffffe000206000 <early_pgtbl>
ffffffe000200ddc:	00f707b3          	add	a5,a4,a5
ffffffe000200de0:	fef43023          	sd	a5,-32(s0)
ffffffe000200de4:	fa043783          	ld	a5,-96(s0)
ffffffe000200de8:	01e7d793          	srli	a5,a5,0x1e
ffffffe000200dec:	1ff7f793          	andi	a5,a5,511
ffffffe000200df0:	03079793          	slli	a5,a5,0x30
ffffffe000200df4:	0307d793          	srli	a5,a5,0x30
ffffffe000200df8:	0007879b          	sext.w	a5,a5
ffffffe000200dfc:	00379713          	slli	a4,a5,0x3
ffffffe000200e00:	00005797          	auipc	a5,0x5
ffffffe000200e04:	20078793          	addi	a5,a5,512 # ffffffe000206000 <early_pgtbl>
ffffffe000200e08:	00f707b3          	add	a5,a4,a5
ffffffe000200e0c:	fcf43c23          	sd	a5,-40(s0)
ffffffe000200e10:	fec42783          	lw	a5,-20(s0)
ffffffe000200e14:	00078713          	mv	a4,a5
ffffffe000200e18:	040007b7          	lui	a5,0x4000
ffffffe000200e1c:	fff78793          	addi	a5,a5,-1 # 3ffffff <_skernel-0x7c200001>
ffffffe000200e20:	00f777b3          	and	a5,a4,a5
ffffffe000200e24:	0007871b          	sext.w	a4,a5
ffffffe000200e28:	fe043783          	ld	a5,-32(s0)
ffffffe000200e2c:	02071693          	slli	a3,a4,0x20
ffffffe000200e30:	0206d693          	srli	a3,a3,0x20
ffffffe000200e34:	04000737          	lui	a4,0x4000
ffffffe000200e38:	fff70713          	addi	a4,a4,-1 # 3ffffff <_skernel-0x7c200001>
ffffffe000200e3c:	00e6f733          	and	a4,a3,a4
ffffffe000200e40:	00a71713          	slli	a4,a4,0xa
ffffffe000200e44:	0007b603          	ld	a2,0(a5)
ffffffe000200e48:	fff00693          	li	a3,-1
ffffffe000200e4c:	02469693          	slli	a3,a3,0x24
ffffffe000200e50:	3ff68693          	addi	a3,a3,1023
ffffffe000200e54:	00d676b3          	and	a3,a2,a3
ffffffe000200e58:	00e6e733          	or	a4,a3,a4
ffffffe000200e5c:	00e7b023          	sd	a4,0(a5)
ffffffe000200e60:	fec42783          	lw	a5,-20(s0)
ffffffe000200e64:	00078713          	mv	a4,a5
ffffffe000200e68:	040007b7          	lui	a5,0x4000
ffffffe000200e6c:	fff78793          	addi	a5,a5,-1 # 3ffffff <_skernel-0x7c200001>
ffffffe000200e70:	00f777b3          	and	a5,a4,a5
ffffffe000200e74:	0007871b          	sext.w	a4,a5
ffffffe000200e78:	fd843783          	ld	a5,-40(s0)
ffffffe000200e7c:	02071693          	slli	a3,a4,0x20
ffffffe000200e80:	0206d693          	srli	a3,a3,0x20
ffffffe000200e84:	04000737          	lui	a4,0x4000
ffffffe000200e88:	fff70713          	addi	a4,a4,-1 # 3ffffff <_skernel-0x7c200001>
ffffffe000200e8c:	00e6f733          	and	a4,a3,a4
ffffffe000200e90:	00a71713          	slli	a4,a4,0xa
ffffffe000200e94:	0007b603          	ld	a2,0(a5)
ffffffe000200e98:	fff00693          	li	a3,-1
ffffffe000200e9c:	02469693          	slli	a3,a3,0x24
ffffffe000200ea0:	3ff68693          	addi	a3,a3,1023
ffffffe000200ea4:	00d676b3          	and	a3,a2,a3
ffffffe000200ea8:	00e6e733          	or	a4,a3,a4
ffffffe000200eac:	00e7b023          	sd	a4,0(a5)
ffffffe000200eb0:	fe043783          	ld	a5,-32(s0)
ffffffe000200eb4:	0007b703          	ld	a4,0(a5)
ffffffe000200eb8:	00176713          	ori	a4,a4,1
ffffffe000200ebc:	00e7b023          	sd	a4,0(a5)
ffffffe000200ec0:	fe043783          	ld	a5,-32(s0)
ffffffe000200ec4:	0007b703          	ld	a4,0(a5)
ffffffe000200ec8:	00276713          	ori	a4,a4,2
ffffffe000200ecc:	00e7b023          	sd	a4,0(a5)
ffffffe000200ed0:	fe043783          	ld	a5,-32(s0)
ffffffe000200ed4:	0007b703          	ld	a4,0(a5)
ffffffe000200ed8:	00476713          	ori	a4,a4,4
ffffffe000200edc:	00e7b023          	sd	a4,0(a5)
ffffffe000200ee0:	fe043783          	ld	a5,-32(s0)
ffffffe000200ee4:	0007b703          	ld	a4,0(a5)
ffffffe000200ee8:	00876713          	ori	a4,a4,8
ffffffe000200eec:	00e7b023          	sd	a4,0(a5)
ffffffe000200ef0:	fd843783          	ld	a5,-40(s0)
ffffffe000200ef4:	0007b703          	ld	a4,0(a5)
ffffffe000200ef8:	00176713          	ori	a4,a4,1
ffffffe000200efc:	00e7b023          	sd	a4,0(a5)
ffffffe000200f00:	fd843783          	ld	a5,-40(s0)
ffffffe000200f04:	0007b703          	ld	a4,0(a5)
ffffffe000200f08:	00276713          	ori	a4,a4,2
ffffffe000200f0c:	00e7b023          	sd	a4,0(a5)
ffffffe000200f10:	fd843783          	ld	a5,-40(s0)
ffffffe000200f14:	0007b703          	ld	a4,0(a5)
ffffffe000200f18:	00476713          	ori	a4,a4,4
ffffffe000200f1c:	00e7b023          	sd	a4,0(a5)
ffffffe000200f20:	fd843783          	ld	a5,-40(s0)
ffffffe000200f24:	0007b703          	ld	a4,0(a5)
ffffffe000200f28:	00876713          	ori	a4,a4,8
ffffffe000200f2c:	00e7b023          	sd	a4,0(a5)
ffffffe000200f30:	fa843783          	ld	a5,-88(s0)
ffffffe000200f34:	01e7d793          	srli	a5,a5,0x1e
ffffffe000200f38:	1ff7f793          	andi	a5,a5,511
ffffffe000200f3c:	03079793          	slli	a5,a5,0x30
ffffffe000200f40:	0307d793          	srli	a5,a5,0x30
ffffffe000200f44:	0007879b          	sext.w	a5,a5
ffffffe000200f48:	00005717          	auipc	a4,0x5
ffffffe000200f4c:	0b870713          	addi	a4,a4,184 # ffffffe000206000 <early_pgtbl>
ffffffe000200f50:	00379793          	slli	a5,a5,0x3
ffffffe000200f54:	00f707b3          	add	a5,a4,a5
ffffffe000200f58:	0007b683          	ld	a3,0(a5)
ffffffe000200f5c:	fa043783          	ld	a5,-96(s0)
ffffffe000200f60:	01e7d793          	srli	a5,a5,0x1e
ffffffe000200f64:	1ff7f793          	andi	a5,a5,511
ffffffe000200f68:	03079793          	slli	a5,a5,0x30
ffffffe000200f6c:	0307d793          	srli	a5,a5,0x30
ffffffe000200f70:	0007879b          	sext.w	a5,a5
ffffffe000200f74:	00005717          	auipc	a4,0x5
ffffffe000200f78:	08c70713          	addi	a4,a4,140 # ffffffe000206000 <early_pgtbl>
ffffffe000200f7c:	00379793          	slli	a5,a5,0x3
ffffffe000200f80:	00f707b3          	add	a5,a4,a5
ffffffe000200f84:	0007b783          	ld	a5,0(a5)
ffffffe000200f88:	00078613          	mv	a2,a5
ffffffe000200f8c:	00068593          	mv	a1,a3
ffffffe000200f90:	00001517          	auipc	a0,0x1
ffffffe000200f94:	1a050513          	addi	a0,a0,416 # ffffffe000202130 <_srodata+0x130>
ffffffe000200f98:	3a9000ef          	jal	ra,ffffffe000201b40 <printk>
ffffffe000200f9c:	00000013          	nop
ffffffe000200fa0:	05813083          	ld	ra,88(sp)
ffffffe000200fa4:	05013403          	ld	s0,80(sp)
ffffffe000200fa8:	06010113          	addi	sp,sp,96
ffffffe000200fac:	00008067          	ret

ffffffe000200fb0 <setup_vm_final>:
ffffffe000200fb0:	fa010113          	addi	sp,sp,-96
ffffffe000200fb4:	04113c23          	sd	ra,88(sp)
ffffffe000200fb8:	04813823          	sd	s0,80(sp)
ffffffe000200fbc:	06010413          	addi	s0,sp,96
ffffffe000200fc0:	00001517          	auipc	a0,0x1
ffffffe000200fc4:	18850513          	addi	a0,a0,392 # ffffffe000202148 <_srodata+0x148>
ffffffe000200fc8:	379000ef          	jal	ra,ffffffe000201b40 <printk>
ffffffe000200fcc:	00001637          	lui	a2,0x1
ffffffe000200fd0:	00000593          	li	a1,0
ffffffe000200fd4:	00006517          	auipc	a0,0x6
ffffffe000200fd8:	02c50513          	addi	a0,a0,44 # ffffffe000207000 <swapper_pg_dir>
ffffffe000200fdc:	6f5000ef          	jal	ra,ffffffe000201ed0 <memset>
ffffffe000200fe0:	fffff797          	auipc	a5,0xfffff
ffffffe000200fe4:	02078793          	addi	a5,a5,32 # ffffffe000200000 <_start>
ffffffe000200fe8:	fef43423          	sd	a5,-24(s0)
ffffffe000200fec:	00001797          	auipc	a5,0x1
ffffffe000200ff0:	f5478793          	addi	a5,a5,-172 # ffffffe000201f40 <_etext>
ffffffe000200ff4:	fef43023          	sd	a5,-32(s0)
ffffffe000200ff8:	00001797          	auipc	a5,0x1
ffffffe000200ffc:	00878793          	addi	a5,a5,8 # ffffffe000202000 <_srodata>
ffffffe000201000:	fcf43c23          	sd	a5,-40(s0)
ffffffe000201004:	00001797          	auipc	a5,0x1
ffffffe000201008:	1d078793          	addi	a5,a5,464 # ffffffe0002021d4 <_erodata>
ffffffe00020100c:	fcf43823          	sd	a5,-48(s0)
ffffffe000201010:	00002797          	auipc	a5,0x2
ffffffe000201014:	ff078793          	addi	a5,a5,-16 # ffffffe000203000 <TIMECLOCK>
ffffffe000201018:	fcf43423          	sd	a5,-56(s0)
ffffffe00020101c:	00002797          	auipc	a5,0x2
ffffffe000201020:	fec78793          	addi	a5,a5,-20 # ffffffe000203008 <_edata>
ffffffe000201024:	fcf43023          	sd	a5,-64(s0)
ffffffe000201028:	00003797          	auipc	a5,0x3
ffffffe00020102c:	fd878793          	addi	a5,a5,-40 # ffffffe000204000 <_sbss>
ffffffe000201030:	faf43c23          	sd	a5,-72(s0)
ffffffe000201034:	00008797          	auipc	a5,0x8
ffffffe000201038:	f6c78793          	addi	a5,a5,-148 # ffffffe000208fa0 <_ebss>
ffffffe00020103c:	faf43823          	sd	a5,-80(s0)
ffffffe000201040:	fe843703          	ld	a4,-24(s0)
ffffffe000201044:	fbf00793          	li	a5,-65
ffffffe000201048:	01f79793          	slli	a5,a5,0x1f
ffffffe00020104c:	00f705b3          	add	a1,a4,a5
ffffffe000201050:	fe043703          	ld	a4,-32(s0)
ffffffe000201054:	fe843783          	ld	a5,-24(s0)
ffffffe000201058:	40f707b3          	sub	a5,a4,a5
ffffffe00020105c:	00500713          	li	a4,5
ffffffe000201060:	00078693          	mv	a3,a5
ffffffe000201064:	fe843603          	ld	a2,-24(s0)
ffffffe000201068:	00006517          	auipc	a0,0x6
ffffffe00020106c:	f9850513          	addi	a0,a0,-104 # ffffffe000207000 <swapper_pg_dir>
ffffffe000201070:	274000ef          	jal	ra,ffffffe0002012e4 <create_mapping>
ffffffe000201074:	fd843703          	ld	a4,-40(s0)
ffffffe000201078:	fbf00793          	li	a5,-65
ffffffe00020107c:	01f79793          	slli	a5,a5,0x1f
ffffffe000201080:	00f705b3          	add	a1,a4,a5
ffffffe000201084:	fd043703          	ld	a4,-48(s0)
ffffffe000201088:	fd843783          	ld	a5,-40(s0)
ffffffe00020108c:	40f707b3          	sub	a5,a4,a5
ffffffe000201090:	00100713          	li	a4,1
ffffffe000201094:	00078693          	mv	a3,a5
ffffffe000201098:	fd843603          	ld	a2,-40(s0)
ffffffe00020109c:	00006517          	auipc	a0,0x6
ffffffe0002010a0:	f6450513          	addi	a0,a0,-156 # ffffffe000207000 <swapper_pg_dir>
ffffffe0002010a4:	240000ef          	jal	ra,ffffffe0002012e4 <create_mapping>
ffffffe0002010a8:	fc843703          	ld	a4,-56(s0)
ffffffe0002010ac:	fbf00793          	li	a5,-65
ffffffe0002010b0:	01f79793          	slli	a5,a5,0x1f
ffffffe0002010b4:	00f705b3          	add	a1,a4,a5
ffffffe0002010b8:	fc043703          	ld	a4,-64(s0)
ffffffe0002010bc:	fc843783          	ld	a5,-56(s0)
ffffffe0002010c0:	40f707b3          	sub	a5,a4,a5
ffffffe0002010c4:	00300713          	li	a4,3
ffffffe0002010c8:	00078693          	mv	a3,a5
ffffffe0002010cc:	fc843603          	ld	a2,-56(s0)
ffffffe0002010d0:	00006517          	auipc	a0,0x6
ffffffe0002010d4:	f3050513          	addi	a0,a0,-208 # ffffffe000207000 <swapper_pg_dir>
ffffffe0002010d8:	20c000ef          	jal	ra,ffffffe0002012e4 <create_mapping>
ffffffe0002010dc:	fb843703          	ld	a4,-72(s0)
ffffffe0002010e0:	fbf00793          	li	a5,-65
ffffffe0002010e4:	01f79793          	slli	a5,a5,0x1f
ffffffe0002010e8:	00f705b3          	add	a1,a4,a5
ffffffe0002010ec:	fb043703          	ld	a4,-80(s0)
ffffffe0002010f0:	fb843783          	ld	a5,-72(s0)
ffffffe0002010f4:	40f707b3          	sub	a5,a4,a5
ffffffe0002010f8:	00300713          	li	a4,3
ffffffe0002010fc:	00078693          	mv	a3,a5
ffffffe000201100:	fb843603          	ld	a2,-72(s0)
ffffffe000201104:	00006517          	auipc	a0,0x6
ffffffe000201108:	efc50513          	addi	a0,a0,-260 # ffffffe000207000 <swapper_pg_dir>
ffffffe00020110c:	1d8000ef          	jal	ra,ffffffe0002012e4 <create_mapping>
ffffffe000201110:	00006797          	auipc	a5,0x6
ffffffe000201114:	ef078793          	addi	a5,a5,-272 # ffffffe000207000 <swapper_pg_dir>
ffffffe000201118:	00c7d713          	srli	a4,a5,0xc
ffffffe00020111c:	fff00793          	li	a5,-1
ffffffe000201120:	03f79793          	slli	a5,a5,0x3f
ffffffe000201124:	00f767b3          	or	a5,a4,a5
ffffffe000201128:	faf43423          	sd	a5,-88(s0)
ffffffe00020112c:	fa843783          	ld	a5,-88(s0)
ffffffe000201130:	faf43023          	sd	a5,-96(s0)
ffffffe000201134:	fa043783          	ld	a5,-96(s0)
ffffffe000201138:	18079073          	csrw	satp,a5
ffffffe00020113c:	12000073          	sfence.vma
ffffffe000201140:	00000013          	nop
ffffffe000201144:	05813083          	ld	ra,88(sp)
ffffffe000201148:	05013403          	ld	s0,80(sp)
ffffffe00020114c:	06010113          	addi	sp,sp,96
ffffffe000201150:	00008067          	ret

ffffffe000201154 <downPgtblAlloc>:
ffffffe000201154:	fb010113          	addi	sp,sp,-80
ffffffe000201158:	04113423          	sd	ra,72(sp)
ffffffe00020115c:	04813023          	sd	s0,64(sp)
ffffffe000201160:	05010413          	addi	s0,sp,80
ffffffe000201164:	fca43423          	sd	a0,-56(s0)
ffffffe000201168:	fcb43023          	sd	a1,-64(s0)
ffffffe00020116c:	00060793          	mv	a5,a2
ffffffe000201170:	faf42e23          	sw	a5,-68(s0)
ffffffe000201174:	fc043783          	ld	a5,-64(s0)
ffffffe000201178:	00379793          	slli	a5,a5,0x3
ffffffe00020117c:	fc843703          	ld	a4,-56(s0)
ffffffe000201180:	00f707b3          	add	a5,a4,a5
ffffffe000201184:	fef43423          	sd	a5,-24(s0)
ffffffe000201188:	fe843783          	ld	a5,-24(s0)
ffffffe00020118c:	0007b783          	ld	a5,0(a5)
ffffffe000201190:	0017f793          	andi	a5,a5,1
ffffffe000201194:	02078663          	beqz	a5,ffffffe0002011c0 <downPgtblAlloc+0x6c>
ffffffe000201198:	fe843783          	ld	a5,-24(s0)
ffffffe00020119c:	0007b783          	ld	a5,0(a5)
ffffffe0002011a0:	00a7d793          	srli	a5,a5,0xa
ffffffe0002011a4:	00f037b3          	snez	a5,a5
ffffffe0002011a8:	0ff7f793          	zext.b	a5,a5
ffffffe0002011ac:	fcf43c23          	sd	a5,-40(s0)
ffffffe0002011b0:	fd843783          	ld	a5,-40(s0)
ffffffe0002011b4:	00c79793          	slli	a5,a5,0xc
ffffffe0002011b8:	fcf43423          	sd	a5,-56(s0)
ffffffe0002011bc:	0380006f          	j	ffffffe0002011f4 <downPgtblAlloc+0xa0>
ffffffe0002011c0:	ad4ff0ef          	jal	ra,ffffffe000200494 <kalloc>
ffffffe0002011c4:	fea43023          	sd	a0,-32(s0)
ffffffe0002011c8:	fe043783          	ld	a5,-32(s0)
ffffffe0002011cc:	fcf43423          	sd	a5,-56(s0)
ffffffe0002011d0:	fe043783          	ld	a5,-32(s0)
ffffffe0002011d4:	00a79793          	slli	a5,a5,0xa
ffffffe0002011d8:	fbc42703          	lw	a4,-68(s0)
ffffffe0002011dc:	0017171b          	slliw	a4,a4,0x1
ffffffe0002011e0:	0007071b          	sext.w	a4,a4
ffffffe0002011e4:	00e7e7b3          	or	a5,a5,a4
ffffffe0002011e8:	0017e713          	ori	a4,a5,1
ffffffe0002011ec:	fe843783          	ld	a5,-24(s0)
ffffffe0002011f0:	00e7b023          	sd	a4,0(a5)
ffffffe0002011f4:	fc843783          	ld	a5,-56(s0)
ffffffe0002011f8:	00078513          	mv	a0,a5
ffffffe0002011fc:	04813083          	ld	ra,72(sp)
ffffffe000201200:	04013403          	ld	s0,64(sp)
ffffffe000201204:	05010113          	addi	sp,sp,80
ffffffe000201208:	00008067          	ret

ffffffe00020120c <getPhysicalAddress>:
ffffffe00020120c:	fb010113          	addi	sp,sp,-80
ffffffe000201210:	04113423          	sd	ra,72(sp)
ffffffe000201214:	04813023          	sd	s0,64(sp)
ffffffe000201218:	05010413          	addi	s0,sp,80
ffffffe00020121c:	fca43423          	sd	a0,-56(s0)
ffffffe000201220:	fcb43023          	sd	a1,-64(s0)
ffffffe000201224:	00060793          	mv	a5,a2
ffffffe000201228:	faf42e23          	sw	a5,-68(s0)
ffffffe00020122c:	fc843783          	ld	a5,-56(s0)
ffffffe000201230:	fef43423          	sd	a5,-24(s0)
ffffffe000201234:	fc040793          	addi	a5,s0,-64
ffffffe000201238:	0007a703          	lw	a4,0(a5)
ffffffe00020123c:	fce42c23          	sw	a4,-40(s0)
ffffffe000201240:	0047a703          	lw	a4,4(a5)
ffffffe000201244:	fce42e23          	sw	a4,-36(s0)
ffffffe000201248:	0087a783          	lw	a5,8(a5)
ffffffe00020124c:	fef42023          	sw	a5,-32(s0)
ffffffe000201250:	fd843783          	ld	a5,-40(s0)
ffffffe000201254:	0307d793          	srli	a5,a5,0x30
ffffffe000201258:	1ff7f793          	andi	a5,a5,511
ffffffe00020125c:	03079793          	slli	a5,a5,0x30
ffffffe000201260:	0307d793          	srli	a5,a5,0x30
ffffffe000201264:	00078713          	mv	a4,a5
ffffffe000201268:	fbc42783          	lw	a5,-68(s0)
ffffffe00020126c:	00078613          	mv	a2,a5
ffffffe000201270:	00070593          	mv	a1,a4
ffffffe000201274:	fe843503          	ld	a0,-24(s0)
ffffffe000201278:	eddff0ef          	jal	ra,ffffffe000201154 <downPgtblAlloc>
ffffffe00020127c:	fea43423          	sd	a0,-24(s0)
ffffffe000201280:	fd843783          	ld	a5,-40(s0)
ffffffe000201284:	0207d793          	srli	a5,a5,0x20
ffffffe000201288:	1ff7f793          	andi	a5,a5,511
ffffffe00020128c:	03079793          	slli	a5,a5,0x30
ffffffe000201290:	0307d793          	srli	a5,a5,0x30
ffffffe000201294:	00078713          	mv	a4,a5
ffffffe000201298:	fbc42783          	lw	a5,-68(s0)
ffffffe00020129c:	00078613          	mv	a2,a5
ffffffe0002012a0:	00070593          	mv	a1,a4
ffffffe0002012a4:	fe843503          	ld	a0,-24(s0)
ffffffe0002012a8:	eadff0ef          	jal	ra,ffffffe000201154 <downPgtblAlloc>
ffffffe0002012ac:	fea43423          	sd	a0,-24(s0)
ffffffe0002012b0:	fd843783          	ld	a5,-40(s0)
ffffffe0002012b4:	0107d793          	srli	a5,a5,0x10
ffffffe0002012b8:	1ff7f793          	andi	a5,a5,511
ffffffe0002012bc:	03079793          	slli	a5,a5,0x30
ffffffe0002012c0:	0307d793          	srli	a5,a5,0x30
ffffffe0002012c4:	00379793          	slli	a5,a5,0x3
ffffffe0002012c8:	fe843703          	ld	a4,-24(s0)
ffffffe0002012cc:	00f707b3          	add	a5,a4,a5
ffffffe0002012d0:	00078513          	mv	a0,a5
ffffffe0002012d4:	04813083          	ld	ra,72(sp)
ffffffe0002012d8:	04013403          	ld	s0,64(sp)
ffffffe0002012dc:	05010113          	addi	sp,sp,80
ffffffe0002012e0:	00008067          	ret

ffffffe0002012e4 <create_mapping>:
ffffffe0002012e4:	fa010113          	addi	sp,sp,-96
ffffffe0002012e8:	04113c23          	sd	ra,88(sp)
ffffffe0002012ec:	04813823          	sd	s0,80(sp)
ffffffe0002012f0:	06010413          	addi	s0,sp,96
ffffffe0002012f4:	fca43423          	sd	a0,-56(s0)
ffffffe0002012f8:	fcb43023          	sd	a1,-64(s0)
ffffffe0002012fc:	fac43c23          	sd	a2,-72(s0)
ffffffe000201300:	fad43823          	sd	a3,-80(s0)
ffffffe000201304:	00070793          	mv	a5,a4
ffffffe000201308:	faf42623          	sw	a5,-84(s0)
ffffffe00020130c:	fc043703          	ld	a4,-64(s0)
ffffffe000201310:	fb043783          	ld	a5,-80(s0)
ffffffe000201314:	00f707b3          	add	a5,a4,a5
ffffffe000201318:	fff78793          	addi	a5,a5,-1
ffffffe00020131c:	fef43423          	sd	a5,-24(s0)
ffffffe000201320:	07c0006f          	j	ffffffe00020139c <create_mapping+0xb8>
ffffffe000201324:	fac42783          	lw	a5,-84(s0)
ffffffe000201328:	00078613          	mv	a2,a5
ffffffe00020132c:	fc043583          	ld	a1,-64(s0)
ffffffe000201330:	fc843503          	ld	a0,-56(s0)
ffffffe000201334:	ed9ff0ef          	jal	ra,ffffffe00020120c <getPhysicalAddress>
ffffffe000201338:	fea43023          	sd	a0,-32(s0)
ffffffe00020133c:	fb843783          	ld	a5,-72(s0)
ffffffe000201340:	00c7d793          	srli	a5,a5,0xc
ffffffe000201344:	fcf43c23          	sd	a5,-40(s0)
ffffffe000201348:	fe043783          	ld	a5,-32(s0)
ffffffe00020134c:	0007b703          	ld	a4,0(a5)
ffffffe000201350:	fff00793          	li	a5,-1
ffffffe000201354:	03679793          	slli	a5,a5,0x36
ffffffe000201358:	00f77733          	and	a4,a4,a5
ffffffe00020135c:	fd843783          	ld	a5,-40(s0)
ffffffe000201360:	00a79793          	slli	a5,a5,0xa
ffffffe000201364:	00f76733          	or	a4,a4,a5
ffffffe000201368:	fac42783          	lw	a5,-84(s0)
ffffffe00020136c:	00f767b3          	or	a5,a4,a5
ffffffe000201370:	0017e713          	ori	a4,a5,1
ffffffe000201374:	fe043783          	ld	a5,-32(s0)
ffffffe000201378:	00e7b023          	sd	a4,0(a5)
ffffffe00020137c:	fc043703          	ld	a4,-64(s0)
ffffffe000201380:	000017b7          	lui	a5,0x1
ffffffe000201384:	00f707b3          	add	a5,a4,a5
ffffffe000201388:	fcf43023          	sd	a5,-64(s0)
ffffffe00020138c:	fb843703          	ld	a4,-72(s0)
ffffffe000201390:	000017b7          	lui	a5,0x1
ffffffe000201394:	00f707b3          	add	a5,a4,a5
ffffffe000201398:	faf43c23          	sd	a5,-72(s0)
ffffffe00020139c:	fc043703          	ld	a4,-64(s0)
ffffffe0002013a0:	fe843783          	ld	a5,-24(s0)
ffffffe0002013a4:	f8e7f0e3          	bgeu	a5,a4,ffffffe000201324 <create_mapping+0x40>
ffffffe0002013a8:	00000013          	nop
ffffffe0002013ac:	00000013          	nop
ffffffe0002013b0:	05813083          	ld	ra,88(sp)
ffffffe0002013b4:	05013403          	ld	s0,80(sp)
ffffffe0002013b8:	06010113          	addi	sp,sp,96
ffffffe0002013bc:	00008067          	ret

ffffffe0002013c0 <start_kernel>:
ffffffe0002013c0:	ff010113          	addi	sp,sp,-16
ffffffe0002013c4:	00113423          	sd	ra,8(sp)
ffffffe0002013c8:	00813023          	sd	s0,0(sp)
ffffffe0002013cc:	01010413          	addi	s0,sp,16
ffffffe0002013d0:	7e600593          	li	a1,2022
ffffffe0002013d4:	00001517          	auipc	a0,0x1
ffffffe0002013d8:	d7c50513          	addi	a0,a0,-644 # ffffffe000202150 <_srodata+0x150>
ffffffe0002013dc:	764000ef          	jal	ra,ffffffe000201b40 <printk>
ffffffe0002013e0:	00001517          	auipc	a0,0x1
ffffffe0002013e4:	d7850513          	addi	a0,a0,-648 # ffffffe000202158 <_srodata+0x158>
ffffffe0002013e8:	758000ef          	jal	ra,ffffffe000201b40 <printk>
ffffffe0002013ec:	01c000ef          	jal	ra,ffffffe000201408 <test>
ffffffe0002013f0:	00000793          	li	a5,0
ffffffe0002013f4:	00078513          	mv	a0,a5
ffffffe0002013f8:	00813083          	ld	ra,8(sp)
ffffffe0002013fc:	00013403          	ld	s0,0(sp)
ffffffe000201400:	01010113          	addi	sp,sp,16
ffffffe000201404:	00008067          	ret

ffffffe000201408 <test>:
ffffffe000201408:	fe010113          	addi	sp,sp,-32
ffffffe00020140c:	00113c23          	sd	ra,24(sp)
ffffffe000201410:	00813823          	sd	s0,16(sp)
ffffffe000201414:	02010413          	addi	s0,sp,32
ffffffe000201418:	fe042623          	sw	zero,-20(s0)
ffffffe00020141c:	fec42783          	lw	a5,-20(s0)
ffffffe000201420:	0017879b          	addiw	a5,a5,1
ffffffe000201424:	fef42623          	sw	a5,-20(s0)
ffffffe000201428:	fec42783          	lw	a5,-20(s0)
ffffffe00020142c:	00078713          	mv	a4,a5
ffffffe000201430:	026267b7          	lui	a5,0x2626
ffffffe000201434:	a007879b          	addiw	a5,a5,-1536
ffffffe000201438:	02f767bb          	remw	a5,a4,a5
ffffffe00020143c:	0007879b          	sext.w	a5,a5
ffffffe000201440:	fc079ee3          	bnez	a5,ffffffe00020141c <test+0x14>
ffffffe000201444:	fe042623          	sw	zero,-20(s0)
ffffffe000201448:	00001517          	auipc	a0,0x1
ffffffe00020144c:	d2050513          	addi	a0,a0,-736 # ffffffe000202168 <_srodata+0x168>
ffffffe000201450:	6f0000ef          	jal	ra,ffffffe000201b40 <printk>
ffffffe000201454:	fc9ff06f          	j	ffffffe00020141c <test+0x14>

ffffffe000201458 <puts>:
ffffffe000201458:	fe010113          	addi	sp,sp,-32
ffffffe00020145c:	00113c23          	sd	ra,24(sp)
ffffffe000201460:	00813823          	sd	s0,16(sp)
ffffffe000201464:	02010413          	addi	s0,sp,32
ffffffe000201468:	fea43423          	sd	a0,-24(s0)
ffffffe00020146c:	03c0006f          	j	ffffffe0002014a8 <puts+0x50>
ffffffe000201470:	fe843783          	ld	a5,-24(s0)
ffffffe000201474:	0007c783          	lbu	a5,0(a5) # 2626000 <_skernel-0x7dbda000>
ffffffe000201478:	00078613          	mv	a2,a5
ffffffe00020147c:	00000893          	li	a7,0
ffffffe000201480:	00000813          	li	a6,0
ffffffe000201484:	00000793          	li	a5,0
ffffffe000201488:	00000713          	li	a4,0
ffffffe00020148c:	00000693          	li	a3,0
ffffffe000201490:	00000593          	li	a1,0
ffffffe000201494:	00100513          	li	a0,1
ffffffe000201498:	f24ff0ef          	jal	ra,ffffffe000200bbc <sbi_ecall>
ffffffe00020149c:	fe843783          	ld	a5,-24(s0)
ffffffe0002014a0:	00178793          	addi	a5,a5,1
ffffffe0002014a4:	fef43423          	sd	a5,-24(s0)
ffffffe0002014a8:	fe843783          	ld	a5,-24(s0)
ffffffe0002014ac:	0007c783          	lbu	a5,0(a5)
ffffffe0002014b0:	fc0790e3          	bnez	a5,ffffffe000201470 <puts+0x18>
ffffffe0002014b4:	00000013          	nop
ffffffe0002014b8:	00000013          	nop
ffffffe0002014bc:	01813083          	ld	ra,24(sp)
ffffffe0002014c0:	01013403          	ld	s0,16(sp)
ffffffe0002014c4:	02010113          	addi	sp,sp,32
ffffffe0002014c8:	00008067          	ret

ffffffe0002014cc <puti>:
ffffffe0002014cc:	fc010113          	addi	sp,sp,-64
ffffffe0002014d0:	02113c23          	sd	ra,56(sp)
ffffffe0002014d4:	02813823          	sd	s0,48(sp)
ffffffe0002014d8:	04010413          	addi	s0,sp,64
ffffffe0002014dc:	00050793          	mv	a5,a0
ffffffe0002014e0:	fcf42623          	sw	a5,-52(s0)
ffffffe0002014e4:	fe042623          	sw	zero,-20(s0)
ffffffe0002014e8:	fcc42783          	lw	a5,-52(s0)
ffffffe0002014ec:	0007879b          	sext.w	a5,a5
ffffffe0002014f0:	02079663          	bnez	a5,ffffffe00020151c <puti+0x50>
ffffffe0002014f4:	00000893          	li	a7,0
ffffffe0002014f8:	00000813          	li	a6,0
ffffffe0002014fc:	00000793          	li	a5,0
ffffffe000201500:	00000713          	li	a4,0
ffffffe000201504:	00000693          	li	a3,0
ffffffe000201508:	03000613          	li	a2,48
ffffffe00020150c:	00000593          	li	a1,0
ffffffe000201510:	00100513          	li	a0,1
ffffffe000201514:	ea8ff0ef          	jal	ra,ffffffe000200bbc <sbi_ecall>
ffffffe000201518:	0ec0006f          	j	ffffffe000201604 <puti+0x138>
ffffffe00020151c:	fcc42783          	lw	a5,-52(s0)
ffffffe000201520:	0007879b          	sext.w	a5,a5
ffffffe000201524:	0807d263          	bgez	a5,ffffffe0002015a8 <puti+0xdc>
ffffffe000201528:	00000893          	li	a7,0
ffffffe00020152c:	00000813          	li	a6,0
ffffffe000201530:	00000793          	li	a5,0
ffffffe000201534:	00000713          	li	a4,0
ffffffe000201538:	00000693          	li	a3,0
ffffffe00020153c:	02d00613          	li	a2,45
ffffffe000201540:	00000593          	li	a1,0
ffffffe000201544:	00100513          	li	a0,1
ffffffe000201548:	e74ff0ef          	jal	ra,ffffffe000200bbc <sbi_ecall>
ffffffe00020154c:	fcc42783          	lw	a5,-52(s0)
ffffffe000201550:	40f007bb          	negw	a5,a5
ffffffe000201554:	fcf42623          	sw	a5,-52(s0)
ffffffe000201558:	0500006f          	j	ffffffe0002015a8 <puti+0xdc>
ffffffe00020155c:	fcc42783          	lw	a5,-52(s0)
ffffffe000201560:	00078713          	mv	a4,a5
ffffffe000201564:	00a00793          	li	a5,10
ffffffe000201568:	02f767bb          	remw	a5,a4,a5
ffffffe00020156c:	0007879b          	sext.w	a5,a5
ffffffe000201570:	0ff7f713          	zext.b	a4,a5
ffffffe000201574:	fec42783          	lw	a5,-20(s0)
ffffffe000201578:	0017869b          	addiw	a3,a5,1
ffffffe00020157c:	fed42623          	sw	a3,-20(s0)
ffffffe000201580:	0307071b          	addiw	a4,a4,48
ffffffe000201584:	0ff77713          	zext.b	a4,a4
ffffffe000201588:	ff078793          	addi	a5,a5,-16
ffffffe00020158c:	008787b3          	add	a5,a5,s0
ffffffe000201590:	fee78423          	sb	a4,-24(a5)
ffffffe000201594:	fcc42783          	lw	a5,-52(s0)
ffffffe000201598:	00078713          	mv	a4,a5
ffffffe00020159c:	00a00793          	li	a5,10
ffffffe0002015a0:	02f747bb          	divw	a5,a4,a5
ffffffe0002015a4:	fcf42623          	sw	a5,-52(s0)
ffffffe0002015a8:	fcc42783          	lw	a5,-52(s0)
ffffffe0002015ac:	0007879b          	sext.w	a5,a5
ffffffe0002015b0:	fa0796e3          	bnez	a5,ffffffe00020155c <puti+0x90>
ffffffe0002015b4:	0440006f          	j	ffffffe0002015f8 <puti+0x12c>
ffffffe0002015b8:	fec42783          	lw	a5,-20(s0)
ffffffe0002015bc:	fff7879b          	addiw	a5,a5,-1
ffffffe0002015c0:	fef42623          	sw	a5,-20(s0)
ffffffe0002015c4:	fec42783          	lw	a5,-20(s0)
ffffffe0002015c8:	ff078793          	addi	a5,a5,-16
ffffffe0002015cc:	008787b3          	add	a5,a5,s0
ffffffe0002015d0:	fe87c783          	lbu	a5,-24(a5)
ffffffe0002015d4:	00078613          	mv	a2,a5
ffffffe0002015d8:	00000893          	li	a7,0
ffffffe0002015dc:	00000813          	li	a6,0
ffffffe0002015e0:	00000793          	li	a5,0
ffffffe0002015e4:	00000713          	li	a4,0
ffffffe0002015e8:	00000693          	li	a3,0
ffffffe0002015ec:	00000593          	li	a1,0
ffffffe0002015f0:	00100513          	li	a0,1
ffffffe0002015f4:	dc8ff0ef          	jal	ra,ffffffe000200bbc <sbi_ecall>
ffffffe0002015f8:	fec42783          	lw	a5,-20(s0)
ffffffe0002015fc:	0007879b          	sext.w	a5,a5
ffffffe000201600:	fa079ce3          	bnez	a5,ffffffe0002015b8 <puti+0xec>
ffffffe000201604:	03813083          	ld	ra,56(sp)
ffffffe000201608:	03013403          	ld	s0,48(sp)
ffffffe00020160c:	04010113          	addi	sp,sp,64
ffffffe000201610:	00008067          	ret

ffffffe000201614 <putc>:
ffffffe000201614:	fe010113          	addi	sp,sp,-32
ffffffe000201618:	00113c23          	sd	ra,24(sp)
ffffffe00020161c:	00813823          	sd	s0,16(sp)
ffffffe000201620:	02010413          	addi	s0,sp,32
ffffffe000201624:	00050793          	mv	a5,a0
ffffffe000201628:	fef407a3          	sb	a5,-17(s0)
ffffffe00020162c:	fef44603          	lbu	a2,-17(s0)
ffffffe000201630:	00000893          	li	a7,0
ffffffe000201634:	00000813          	li	a6,0
ffffffe000201638:	00000793          	li	a5,0
ffffffe00020163c:	00000713          	li	a4,0
ffffffe000201640:	00000693          	li	a3,0
ffffffe000201644:	00000593          	li	a1,0
ffffffe000201648:	00100513          	li	a0,1
ffffffe00020164c:	d70ff0ef          	jal	ra,ffffffe000200bbc <sbi_ecall>
ffffffe000201650:	00000013          	nop
ffffffe000201654:	01813083          	ld	ra,24(sp)
ffffffe000201658:	01013403          	ld	s0,16(sp)
ffffffe00020165c:	02010113          	addi	sp,sp,32
ffffffe000201660:	00008067          	ret

ffffffe000201664 <vprintfmt>:
ffffffe000201664:	f2010113          	addi	sp,sp,-224
ffffffe000201668:	0c113c23          	sd	ra,216(sp)
ffffffe00020166c:	0c813823          	sd	s0,208(sp)
ffffffe000201670:	0e010413          	addi	s0,sp,224
ffffffe000201674:	f2a43c23          	sd	a0,-200(s0)
ffffffe000201678:	f2b43823          	sd	a1,-208(s0)
ffffffe00020167c:	f2c43423          	sd	a2,-216(s0)
ffffffe000201680:	fe042623          	sw	zero,-20(s0)
ffffffe000201684:	fe042423          	sw	zero,-24(s0)
ffffffe000201688:	fe043023          	sd	zero,-32(s0)
ffffffe00020168c:	48c0006f          	j	ffffffe000201b18 <vprintfmt+0x4b4>
ffffffe000201690:	fec42783          	lw	a5,-20(s0)
ffffffe000201694:	0007879b          	sext.w	a5,a5
ffffffe000201698:	42078663          	beqz	a5,ffffffe000201ac4 <vprintfmt+0x460>
ffffffe00020169c:	f3043783          	ld	a5,-208(s0)
ffffffe0002016a0:	0007c783          	lbu	a5,0(a5)
ffffffe0002016a4:	0007879b          	sext.w	a5,a5
ffffffe0002016a8:	f9d7869b          	addiw	a3,a5,-99
ffffffe0002016ac:	0006871b          	sext.w	a4,a3
ffffffe0002016b0:	01500793          	li	a5,21
ffffffe0002016b4:	44e7ea63          	bltu	a5,a4,ffffffe000201b08 <vprintfmt+0x4a4>
ffffffe0002016b8:	02069793          	slli	a5,a3,0x20
ffffffe0002016bc:	0207d793          	srli	a5,a5,0x20
ffffffe0002016c0:	00279713          	slli	a4,a5,0x2
ffffffe0002016c4:	00001797          	auipc	a5,0x1
ffffffe0002016c8:	ab878793          	addi	a5,a5,-1352 # ffffffe00020217c <_srodata+0x17c>
ffffffe0002016cc:	00f707b3          	add	a5,a4,a5
ffffffe0002016d0:	0007a783          	lw	a5,0(a5)
ffffffe0002016d4:	0007871b          	sext.w	a4,a5
ffffffe0002016d8:	00001797          	auipc	a5,0x1
ffffffe0002016dc:	aa478793          	addi	a5,a5,-1372 # ffffffe00020217c <_srodata+0x17c>
ffffffe0002016e0:	00f707b3          	add	a5,a4,a5
ffffffe0002016e4:	00078067          	jr	a5
ffffffe0002016e8:	00100793          	li	a5,1
ffffffe0002016ec:	fef42423          	sw	a5,-24(s0)
ffffffe0002016f0:	41c0006f          	j	ffffffe000201b0c <vprintfmt+0x4a8>
ffffffe0002016f4:	fe842783          	lw	a5,-24(s0)
ffffffe0002016f8:	0007879b          	sext.w	a5,a5
ffffffe0002016fc:	00078c63          	beqz	a5,ffffffe000201714 <vprintfmt+0xb0>
ffffffe000201700:	f2843783          	ld	a5,-216(s0)
ffffffe000201704:	00878713          	addi	a4,a5,8
ffffffe000201708:	f2e43423          	sd	a4,-216(s0)
ffffffe00020170c:	0007b783          	ld	a5,0(a5)
ffffffe000201710:	0140006f          	j	ffffffe000201724 <vprintfmt+0xc0>
ffffffe000201714:	f2843783          	ld	a5,-216(s0)
ffffffe000201718:	00878713          	addi	a4,a5,8
ffffffe00020171c:	f2e43423          	sd	a4,-216(s0)
ffffffe000201720:	0007a783          	lw	a5,0(a5)
ffffffe000201724:	f8f43c23          	sd	a5,-104(s0)
ffffffe000201728:	fe842783          	lw	a5,-24(s0)
ffffffe00020172c:	0007879b          	sext.w	a5,a5
ffffffe000201730:	00078663          	beqz	a5,ffffffe00020173c <vprintfmt+0xd8>
ffffffe000201734:	00f00793          	li	a5,15
ffffffe000201738:	0080006f          	j	ffffffe000201740 <vprintfmt+0xdc>
ffffffe00020173c:	00700793          	li	a5,7
ffffffe000201740:	f8f42a23          	sw	a5,-108(s0)
ffffffe000201744:	f9442783          	lw	a5,-108(s0)
ffffffe000201748:	fcf42e23          	sw	a5,-36(s0)
ffffffe00020174c:	0840006f          	j	ffffffe0002017d0 <vprintfmt+0x16c>
ffffffe000201750:	fdc42783          	lw	a5,-36(s0)
ffffffe000201754:	0027979b          	slliw	a5,a5,0x2
ffffffe000201758:	0007879b          	sext.w	a5,a5
ffffffe00020175c:	f9843703          	ld	a4,-104(s0)
ffffffe000201760:	40f757b3          	sra	a5,a4,a5
ffffffe000201764:	0007879b          	sext.w	a5,a5
ffffffe000201768:	00f7f793          	andi	a5,a5,15
ffffffe00020176c:	f8f42823          	sw	a5,-112(s0)
ffffffe000201770:	f9042783          	lw	a5,-112(s0)
ffffffe000201774:	0007871b          	sext.w	a4,a5
ffffffe000201778:	00900793          	li	a5,9
ffffffe00020177c:	00e7cc63          	blt	a5,a4,ffffffe000201794 <vprintfmt+0x130>
ffffffe000201780:	f9042783          	lw	a5,-112(s0)
ffffffe000201784:	0ff7f793          	zext.b	a5,a5
ffffffe000201788:	0307879b          	addiw	a5,a5,48
ffffffe00020178c:	0ff7f793          	zext.b	a5,a5
ffffffe000201790:	0140006f          	j	ffffffe0002017a4 <vprintfmt+0x140>
ffffffe000201794:	f9042783          	lw	a5,-112(s0)
ffffffe000201798:	0ff7f793          	zext.b	a5,a5
ffffffe00020179c:	0577879b          	addiw	a5,a5,87
ffffffe0002017a0:	0ff7f793          	zext.b	a5,a5
ffffffe0002017a4:	f8f407a3          	sb	a5,-113(s0)
ffffffe0002017a8:	f8f44783          	lbu	a5,-113(s0)
ffffffe0002017ac:	f3843703          	ld	a4,-200(s0)
ffffffe0002017b0:	00078513          	mv	a0,a5
ffffffe0002017b4:	000700e7          	jalr	a4
ffffffe0002017b8:	fe043783          	ld	a5,-32(s0)
ffffffe0002017bc:	00178793          	addi	a5,a5,1
ffffffe0002017c0:	fef43023          	sd	a5,-32(s0)
ffffffe0002017c4:	fdc42783          	lw	a5,-36(s0)
ffffffe0002017c8:	fff7879b          	addiw	a5,a5,-1
ffffffe0002017cc:	fcf42e23          	sw	a5,-36(s0)
ffffffe0002017d0:	fdc42783          	lw	a5,-36(s0)
ffffffe0002017d4:	0007879b          	sext.w	a5,a5
ffffffe0002017d8:	f607dce3          	bgez	a5,ffffffe000201750 <vprintfmt+0xec>
ffffffe0002017dc:	fe042423          	sw	zero,-24(s0)
ffffffe0002017e0:	fe042623          	sw	zero,-20(s0)
ffffffe0002017e4:	3280006f          	j	ffffffe000201b0c <vprintfmt+0x4a8>
ffffffe0002017e8:	fe842783          	lw	a5,-24(s0)
ffffffe0002017ec:	0007879b          	sext.w	a5,a5
ffffffe0002017f0:	00078c63          	beqz	a5,ffffffe000201808 <vprintfmt+0x1a4>
ffffffe0002017f4:	f2843783          	ld	a5,-216(s0)
ffffffe0002017f8:	00878713          	addi	a4,a5,8
ffffffe0002017fc:	f2e43423          	sd	a4,-216(s0)
ffffffe000201800:	0007b783          	ld	a5,0(a5)
ffffffe000201804:	0140006f          	j	ffffffe000201818 <vprintfmt+0x1b4>
ffffffe000201808:	f2843783          	ld	a5,-216(s0)
ffffffe00020180c:	00878713          	addi	a4,a5,8
ffffffe000201810:	f2e43423          	sd	a4,-216(s0)
ffffffe000201814:	0007a783          	lw	a5,0(a5)
ffffffe000201818:	fcf43823          	sd	a5,-48(s0)
ffffffe00020181c:	fd043783          	ld	a5,-48(s0)
ffffffe000201820:	0207d463          	bgez	a5,ffffffe000201848 <vprintfmt+0x1e4>
ffffffe000201824:	fd043783          	ld	a5,-48(s0)
ffffffe000201828:	40f007b3          	neg	a5,a5
ffffffe00020182c:	fcf43823          	sd	a5,-48(s0)
ffffffe000201830:	f3843783          	ld	a5,-200(s0)
ffffffe000201834:	02d00513          	li	a0,45
ffffffe000201838:	000780e7          	jalr	a5
ffffffe00020183c:	fe043783          	ld	a5,-32(s0)
ffffffe000201840:	00178793          	addi	a5,a5,1
ffffffe000201844:	fef43023          	sd	a5,-32(s0)
ffffffe000201848:	fc042623          	sw	zero,-52(s0)
ffffffe00020184c:	03000793          	li	a5,48
ffffffe000201850:	f6f43023          	sd	a5,-160(s0)
ffffffe000201854:	f6043423          	sd	zero,-152(s0)
ffffffe000201858:	f6043823          	sd	zero,-144(s0)
ffffffe00020185c:	f6040c23          	sb	zero,-136(s0)
ffffffe000201860:	fd043783          	ld	a5,-48(s0)
ffffffe000201864:	fcf43023          	sd	a5,-64(s0)
ffffffe000201868:	0480006f          	j	ffffffe0002018b0 <vprintfmt+0x24c>
ffffffe00020186c:	fc043703          	ld	a4,-64(s0)
ffffffe000201870:	00a00793          	li	a5,10
ffffffe000201874:	02f767b3          	rem	a5,a4,a5
ffffffe000201878:	0ff7f793          	zext.b	a5,a5
ffffffe00020187c:	0307879b          	addiw	a5,a5,48
ffffffe000201880:	0ff7f713          	zext.b	a4,a5
ffffffe000201884:	fcc42783          	lw	a5,-52(s0)
ffffffe000201888:	ff078793          	addi	a5,a5,-16
ffffffe00020188c:	008787b3          	add	a5,a5,s0
ffffffe000201890:	f6e78823          	sb	a4,-144(a5)
ffffffe000201894:	fc043703          	ld	a4,-64(s0)
ffffffe000201898:	00a00793          	li	a5,10
ffffffe00020189c:	02f747b3          	div	a5,a4,a5
ffffffe0002018a0:	fcf43023          	sd	a5,-64(s0)
ffffffe0002018a4:	fcc42783          	lw	a5,-52(s0)
ffffffe0002018a8:	0017879b          	addiw	a5,a5,1
ffffffe0002018ac:	fcf42623          	sw	a5,-52(s0)
ffffffe0002018b0:	fc043783          	ld	a5,-64(s0)
ffffffe0002018b4:	fa079ce3          	bnez	a5,ffffffe00020186c <vprintfmt+0x208>
ffffffe0002018b8:	fcc42783          	lw	a5,-52(s0)
ffffffe0002018bc:	faf42e23          	sw	a5,-68(s0)
ffffffe0002018c0:	02c0006f          	j	ffffffe0002018ec <vprintfmt+0x288>
ffffffe0002018c4:	fbc42783          	lw	a5,-68(s0)
ffffffe0002018c8:	ff078793          	addi	a5,a5,-16
ffffffe0002018cc:	008787b3          	add	a5,a5,s0
ffffffe0002018d0:	f707c783          	lbu	a5,-144(a5)
ffffffe0002018d4:	f3843703          	ld	a4,-200(s0)
ffffffe0002018d8:	00078513          	mv	a0,a5
ffffffe0002018dc:	000700e7          	jalr	a4
ffffffe0002018e0:	fbc42783          	lw	a5,-68(s0)
ffffffe0002018e4:	fff7879b          	addiw	a5,a5,-1
ffffffe0002018e8:	faf42e23          	sw	a5,-68(s0)
ffffffe0002018ec:	fbc42783          	lw	a5,-68(s0)
ffffffe0002018f0:	0007879b          	sext.w	a5,a5
ffffffe0002018f4:	fc07d8e3          	bgez	a5,ffffffe0002018c4 <vprintfmt+0x260>
ffffffe0002018f8:	fcc42783          	lw	a5,-52(s0)
ffffffe0002018fc:	0017879b          	addiw	a5,a5,1
ffffffe000201900:	0007879b          	sext.w	a5,a5
ffffffe000201904:	00078713          	mv	a4,a5
ffffffe000201908:	fe043783          	ld	a5,-32(s0)
ffffffe00020190c:	00e787b3          	add	a5,a5,a4
ffffffe000201910:	fef43023          	sd	a5,-32(s0)
ffffffe000201914:	fe042423          	sw	zero,-24(s0)
ffffffe000201918:	fe042623          	sw	zero,-20(s0)
ffffffe00020191c:	1f00006f          	j	ffffffe000201b0c <vprintfmt+0x4a8>
ffffffe000201920:	fe842783          	lw	a5,-24(s0)
ffffffe000201924:	0007879b          	sext.w	a5,a5
ffffffe000201928:	00078c63          	beqz	a5,ffffffe000201940 <vprintfmt+0x2dc>
ffffffe00020192c:	f2843783          	ld	a5,-216(s0)
ffffffe000201930:	00878713          	addi	a4,a5,8
ffffffe000201934:	f2e43423          	sd	a4,-216(s0)
ffffffe000201938:	0007b783          	ld	a5,0(a5)
ffffffe00020193c:	0140006f          	j	ffffffe000201950 <vprintfmt+0x2ec>
ffffffe000201940:	f2843783          	ld	a5,-216(s0)
ffffffe000201944:	00878713          	addi	a4,a5,8
ffffffe000201948:	f2e43423          	sd	a4,-216(s0)
ffffffe00020194c:	0007a783          	lw	a5,0(a5)
ffffffe000201950:	f8f43023          	sd	a5,-128(s0)
ffffffe000201954:	fa042c23          	sw	zero,-72(s0)
ffffffe000201958:	03000793          	li	a5,48
ffffffe00020195c:	f4f43023          	sd	a5,-192(s0)
ffffffe000201960:	f4043423          	sd	zero,-184(s0)
ffffffe000201964:	f4043823          	sd	zero,-176(s0)
ffffffe000201968:	f4040c23          	sb	zero,-168(s0)
ffffffe00020196c:	f8043783          	ld	a5,-128(s0)
ffffffe000201970:	faf43823          	sd	a5,-80(s0)
ffffffe000201974:	0480006f          	j	ffffffe0002019bc <vprintfmt+0x358>
ffffffe000201978:	fb043703          	ld	a4,-80(s0)
ffffffe00020197c:	00a00793          	li	a5,10
ffffffe000201980:	02f767b3          	rem	a5,a4,a5
ffffffe000201984:	0ff7f793          	zext.b	a5,a5
ffffffe000201988:	0307879b          	addiw	a5,a5,48
ffffffe00020198c:	0ff7f713          	zext.b	a4,a5
ffffffe000201990:	fb842783          	lw	a5,-72(s0)
ffffffe000201994:	ff078793          	addi	a5,a5,-16
ffffffe000201998:	008787b3          	add	a5,a5,s0
ffffffe00020199c:	f4e78823          	sb	a4,-176(a5)
ffffffe0002019a0:	fb043703          	ld	a4,-80(s0)
ffffffe0002019a4:	00a00793          	li	a5,10
ffffffe0002019a8:	02f747b3          	div	a5,a4,a5
ffffffe0002019ac:	faf43823          	sd	a5,-80(s0)
ffffffe0002019b0:	fb842783          	lw	a5,-72(s0)
ffffffe0002019b4:	0017879b          	addiw	a5,a5,1
ffffffe0002019b8:	faf42c23          	sw	a5,-72(s0)
ffffffe0002019bc:	fb043783          	ld	a5,-80(s0)
ffffffe0002019c0:	fa079ce3          	bnez	a5,ffffffe000201978 <vprintfmt+0x314>
ffffffe0002019c4:	fb842783          	lw	a5,-72(s0)
ffffffe0002019c8:	faf42623          	sw	a5,-84(s0)
ffffffe0002019cc:	02c0006f          	j	ffffffe0002019f8 <vprintfmt+0x394>
ffffffe0002019d0:	fac42783          	lw	a5,-84(s0)
ffffffe0002019d4:	ff078793          	addi	a5,a5,-16
ffffffe0002019d8:	008787b3          	add	a5,a5,s0
ffffffe0002019dc:	f507c783          	lbu	a5,-176(a5)
ffffffe0002019e0:	f3843703          	ld	a4,-200(s0)
ffffffe0002019e4:	00078513          	mv	a0,a5
ffffffe0002019e8:	000700e7          	jalr	a4
ffffffe0002019ec:	fac42783          	lw	a5,-84(s0)
ffffffe0002019f0:	fff7879b          	addiw	a5,a5,-1
ffffffe0002019f4:	faf42623          	sw	a5,-84(s0)
ffffffe0002019f8:	fac42783          	lw	a5,-84(s0)
ffffffe0002019fc:	0007879b          	sext.w	a5,a5
ffffffe000201a00:	fc07d8e3          	bgez	a5,ffffffe0002019d0 <vprintfmt+0x36c>
ffffffe000201a04:	fb842783          	lw	a5,-72(s0)
ffffffe000201a08:	0017879b          	addiw	a5,a5,1
ffffffe000201a0c:	0007879b          	sext.w	a5,a5
ffffffe000201a10:	00078713          	mv	a4,a5
ffffffe000201a14:	fe043783          	ld	a5,-32(s0)
ffffffe000201a18:	00e787b3          	add	a5,a5,a4
ffffffe000201a1c:	fef43023          	sd	a5,-32(s0)
ffffffe000201a20:	fe042423          	sw	zero,-24(s0)
ffffffe000201a24:	fe042623          	sw	zero,-20(s0)
ffffffe000201a28:	0e40006f          	j	ffffffe000201b0c <vprintfmt+0x4a8>
ffffffe000201a2c:	f2843783          	ld	a5,-216(s0)
ffffffe000201a30:	00878713          	addi	a4,a5,8
ffffffe000201a34:	f2e43423          	sd	a4,-216(s0)
ffffffe000201a38:	0007b783          	ld	a5,0(a5)
ffffffe000201a3c:	faf43023          	sd	a5,-96(s0)
ffffffe000201a40:	0300006f          	j	ffffffe000201a70 <vprintfmt+0x40c>
ffffffe000201a44:	fa043783          	ld	a5,-96(s0)
ffffffe000201a48:	0007c783          	lbu	a5,0(a5)
ffffffe000201a4c:	f3843703          	ld	a4,-200(s0)
ffffffe000201a50:	00078513          	mv	a0,a5
ffffffe000201a54:	000700e7          	jalr	a4
ffffffe000201a58:	fe043783          	ld	a5,-32(s0)
ffffffe000201a5c:	00178793          	addi	a5,a5,1
ffffffe000201a60:	fef43023          	sd	a5,-32(s0)
ffffffe000201a64:	fa043783          	ld	a5,-96(s0)
ffffffe000201a68:	00178793          	addi	a5,a5,1
ffffffe000201a6c:	faf43023          	sd	a5,-96(s0)
ffffffe000201a70:	fa043783          	ld	a5,-96(s0)
ffffffe000201a74:	0007c783          	lbu	a5,0(a5)
ffffffe000201a78:	fc0796e3          	bnez	a5,ffffffe000201a44 <vprintfmt+0x3e0>
ffffffe000201a7c:	fe042423          	sw	zero,-24(s0)
ffffffe000201a80:	fe042623          	sw	zero,-20(s0)
ffffffe000201a84:	0880006f          	j	ffffffe000201b0c <vprintfmt+0x4a8>
ffffffe000201a88:	f2843783          	ld	a5,-216(s0)
ffffffe000201a8c:	00878713          	addi	a4,a5,8
ffffffe000201a90:	f2e43423          	sd	a4,-216(s0)
ffffffe000201a94:	0007a783          	lw	a5,0(a5)
ffffffe000201a98:	f6f40fa3          	sb	a5,-129(s0)
ffffffe000201a9c:	f7f44783          	lbu	a5,-129(s0)
ffffffe000201aa0:	f3843703          	ld	a4,-200(s0)
ffffffe000201aa4:	00078513          	mv	a0,a5
ffffffe000201aa8:	000700e7          	jalr	a4
ffffffe000201aac:	fe043783          	ld	a5,-32(s0)
ffffffe000201ab0:	00178793          	addi	a5,a5,1
ffffffe000201ab4:	fef43023          	sd	a5,-32(s0)
ffffffe000201ab8:	fe042423          	sw	zero,-24(s0)
ffffffe000201abc:	fe042623          	sw	zero,-20(s0)
ffffffe000201ac0:	04c0006f          	j	ffffffe000201b0c <vprintfmt+0x4a8>
ffffffe000201ac4:	f3043783          	ld	a5,-208(s0)
ffffffe000201ac8:	0007c783          	lbu	a5,0(a5)
ffffffe000201acc:	00078713          	mv	a4,a5
ffffffe000201ad0:	02500793          	li	a5,37
ffffffe000201ad4:	00f71863          	bne	a4,a5,ffffffe000201ae4 <vprintfmt+0x480>
ffffffe000201ad8:	00100793          	li	a5,1
ffffffe000201adc:	fef42623          	sw	a5,-20(s0)
ffffffe000201ae0:	02c0006f          	j	ffffffe000201b0c <vprintfmt+0x4a8>
ffffffe000201ae4:	f3043783          	ld	a5,-208(s0)
ffffffe000201ae8:	0007c783          	lbu	a5,0(a5)
ffffffe000201aec:	f3843703          	ld	a4,-200(s0)
ffffffe000201af0:	00078513          	mv	a0,a5
ffffffe000201af4:	000700e7          	jalr	a4
ffffffe000201af8:	fe043783          	ld	a5,-32(s0)
ffffffe000201afc:	00178793          	addi	a5,a5,1
ffffffe000201b00:	fef43023          	sd	a5,-32(s0)
ffffffe000201b04:	0080006f          	j	ffffffe000201b0c <vprintfmt+0x4a8>
ffffffe000201b08:	00000013          	nop
ffffffe000201b0c:	f3043783          	ld	a5,-208(s0)
ffffffe000201b10:	00178793          	addi	a5,a5,1
ffffffe000201b14:	f2f43823          	sd	a5,-208(s0)
ffffffe000201b18:	f3043783          	ld	a5,-208(s0)
ffffffe000201b1c:	0007c783          	lbu	a5,0(a5)
ffffffe000201b20:	b60798e3          	bnez	a5,ffffffe000201690 <vprintfmt+0x2c>
ffffffe000201b24:	fe043783          	ld	a5,-32(s0)
ffffffe000201b28:	0007879b          	sext.w	a5,a5
ffffffe000201b2c:	00078513          	mv	a0,a5
ffffffe000201b30:	0d813083          	ld	ra,216(sp)
ffffffe000201b34:	0d013403          	ld	s0,208(sp)
ffffffe000201b38:	0e010113          	addi	sp,sp,224
ffffffe000201b3c:	00008067          	ret

ffffffe000201b40 <printk>:
ffffffe000201b40:	f9010113          	addi	sp,sp,-112
ffffffe000201b44:	02113423          	sd	ra,40(sp)
ffffffe000201b48:	02813023          	sd	s0,32(sp)
ffffffe000201b4c:	03010413          	addi	s0,sp,48
ffffffe000201b50:	fca43c23          	sd	a0,-40(s0)
ffffffe000201b54:	00b43423          	sd	a1,8(s0)
ffffffe000201b58:	00c43823          	sd	a2,16(s0)
ffffffe000201b5c:	00d43c23          	sd	a3,24(s0)
ffffffe000201b60:	02e43023          	sd	a4,32(s0)
ffffffe000201b64:	02f43423          	sd	a5,40(s0)
ffffffe000201b68:	03043823          	sd	a6,48(s0)
ffffffe000201b6c:	03143c23          	sd	a7,56(s0)
ffffffe000201b70:	fe042623          	sw	zero,-20(s0)
ffffffe000201b74:	04040793          	addi	a5,s0,64
ffffffe000201b78:	fcf43823          	sd	a5,-48(s0)
ffffffe000201b7c:	fd043783          	ld	a5,-48(s0)
ffffffe000201b80:	fc878793          	addi	a5,a5,-56
ffffffe000201b84:	fef43023          	sd	a5,-32(s0)
ffffffe000201b88:	fe043783          	ld	a5,-32(s0)
ffffffe000201b8c:	00078613          	mv	a2,a5
ffffffe000201b90:	fd843583          	ld	a1,-40(s0)
ffffffe000201b94:	00000517          	auipc	a0,0x0
ffffffe000201b98:	a8050513          	addi	a0,a0,-1408 # ffffffe000201614 <putc>
ffffffe000201b9c:	ac9ff0ef          	jal	ra,ffffffe000201664 <vprintfmt>
ffffffe000201ba0:	00050793          	mv	a5,a0
ffffffe000201ba4:	fef42623          	sw	a5,-20(s0)
ffffffe000201ba8:	fec42783          	lw	a5,-20(s0)
ffffffe000201bac:	00078513          	mv	a0,a5
ffffffe000201bb0:	02813083          	ld	ra,40(sp)
ffffffe000201bb4:	02013403          	ld	s0,32(sp)
ffffffe000201bb8:	07010113          	addi	sp,sp,112
ffffffe000201bbc:	00008067          	ret

ffffffe000201bc0 <rand>:
ffffffe000201bc0:	fe010113          	addi	sp,sp,-32
ffffffe000201bc4:	00813c23          	sd	s0,24(sp)
ffffffe000201bc8:	02010413          	addi	s0,sp,32
ffffffe000201bcc:	00003797          	auipc	a5,0x3
ffffffe000201bd0:	44c78793          	addi	a5,a5,1100 # ffffffe000205018 <initialize>
ffffffe000201bd4:	0007a783          	lw	a5,0(a5)
ffffffe000201bd8:	1e079463          	bnez	a5,ffffffe000201dc0 <rand+0x200>
ffffffe000201bdc:	00006797          	auipc	a5,0x6
ffffffe000201be0:	42478793          	addi	a5,a5,1060 # ffffffe000208000 <r>
ffffffe000201be4:	00d00713          	li	a4,13
ffffffe000201be8:	00e7a023          	sw	a4,0(a5)
ffffffe000201bec:	00100793          	li	a5,1
ffffffe000201bf0:	fef42623          	sw	a5,-20(s0)
ffffffe000201bf4:	0c40006f          	j	ffffffe000201cb8 <rand+0xf8>
ffffffe000201bf8:	fec42783          	lw	a5,-20(s0)
ffffffe000201bfc:	fff7879b          	addiw	a5,a5,-1
ffffffe000201c00:	0007879b          	sext.w	a5,a5
ffffffe000201c04:	00006717          	auipc	a4,0x6
ffffffe000201c08:	3fc70713          	addi	a4,a4,1020 # ffffffe000208000 <r>
ffffffe000201c0c:	00279793          	slli	a5,a5,0x2
ffffffe000201c10:	00f707b3          	add	a5,a4,a5
ffffffe000201c14:	0007a783          	lw	a5,0(a5)
ffffffe000201c18:	00078713          	mv	a4,a5
ffffffe000201c1c:	000047b7          	lui	a5,0x4
ffffffe000201c20:	1a778793          	addi	a5,a5,423 # 41a7 <_skernel-0x801fbe59>
ffffffe000201c24:	02f70733          	mul	a4,a4,a5
ffffffe000201c28:	800007b7          	lui	a5,0x80000
ffffffe000201c2c:	fff7c793          	not	a5,a5
ffffffe000201c30:	02f767b3          	rem	a5,a4,a5
ffffffe000201c34:	0007871b          	sext.w	a4,a5
ffffffe000201c38:	00006697          	auipc	a3,0x6
ffffffe000201c3c:	3c868693          	addi	a3,a3,968 # ffffffe000208000 <r>
ffffffe000201c40:	fec42783          	lw	a5,-20(s0)
ffffffe000201c44:	00279793          	slli	a5,a5,0x2
ffffffe000201c48:	00f687b3          	add	a5,a3,a5
ffffffe000201c4c:	00e7a023          	sw	a4,0(a5) # ffffffff80000000 <_ebss+0x1f7fdf7060>
ffffffe000201c50:	00006717          	auipc	a4,0x6
ffffffe000201c54:	3b070713          	addi	a4,a4,944 # ffffffe000208000 <r>
ffffffe000201c58:	fec42783          	lw	a5,-20(s0)
ffffffe000201c5c:	00279793          	slli	a5,a5,0x2
ffffffe000201c60:	00f707b3          	add	a5,a4,a5
ffffffe000201c64:	0007a783          	lw	a5,0(a5)
ffffffe000201c68:	0407d263          	bgez	a5,ffffffe000201cac <rand+0xec>
ffffffe000201c6c:	00006717          	auipc	a4,0x6
ffffffe000201c70:	39470713          	addi	a4,a4,916 # ffffffe000208000 <r>
ffffffe000201c74:	fec42783          	lw	a5,-20(s0)
ffffffe000201c78:	00279793          	slli	a5,a5,0x2
ffffffe000201c7c:	00f707b3          	add	a5,a4,a5
ffffffe000201c80:	0007a703          	lw	a4,0(a5)
ffffffe000201c84:	800007b7          	lui	a5,0x80000
ffffffe000201c88:	fff7c793          	not	a5,a5
ffffffe000201c8c:	00f707bb          	addw	a5,a4,a5
ffffffe000201c90:	0007871b          	sext.w	a4,a5
ffffffe000201c94:	00006697          	auipc	a3,0x6
ffffffe000201c98:	36c68693          	addi	a3,a3,876 # ffffffe000208000 <r>
ffffffe000201c9c:	fec42783          	lw	a5,-20(s0)
ffffffe000201ca0:	00279793          	slli	a5,a5,0x2
ffffffe000201ca4:	00f687b3          	add	a5,a3,a5
ffffffe000201ca8:	00e7a023          	sw	a4,0(a5) # ffffffff80000000 <_ebss+0x1f7fdf7060>
ffffffe000201cac:	fec42783          	lw	a5,-20(s0)
ffffffe000201cb0:	0017879b          	addiw	a5,a5,1
ffffffe000201cb4:	fef42623          	sw	a5,-20(s0)
ffffffe000201cb8:	fec42783          	lw	a5,-20(s0)
ffffffe000201cbc:	0007871b          	sext.w	a4,a5
ffffffe000201cc0:	01e00793          	li	a5,30
ffffffe000201cc4:	f2e7dae3          	bge	a5,a4,ffffffe000201bf8 <rand+0x38>
ffffffe000201cc8:	01f00793          	li	a5,31
ffffffe000201ccc:	fef42623          	sw	a5,-20(s0)
ffffffe000201cd0:	0480006f          	j	ffffffe000201d18 <rand+0x158>
ffffffe000201cd4:	fec42783          	lw	a5,-20(s0)
ffffffe000201cd8:	fe17879b          	addiw	a5,a5,-31
ffffffe000201cdc:	0007879b          	sext.w	a5,a5
ffffffe000201ce0:	00006717          	auipc	a4,0x6
ffffffe000201ce4:	32070713          	addi	a4,a4,800 # ffffffe000208000 <r>
ffffffe000201ce8:	00279793          	slli	a5,a5,0x2
ffffffe000201cec:	00f707b3          	add	a5,a4,a5
ffffffe000201cf0:	0007a703          	lw	a4,0(a5)
ffffffe000201cf4:	00006697          	auipc	a3,0x6
ffffffe000201cf8:	30c68693          	addi	a3,a3,780 # ffffffe000208000 <r>
ffffffe000201cfc:	fec42783          	lw	a5,-20(s0)
ffffffe000201d00:	00279793          	slli	a5,a5,0x2
ffffffe000201d04:	00f687b3          	add	a5,a3,a5
ffffffe000201d08:	00e7a023          	sw	a4,0(a5)
ffffffe000201d0c:	fec42783          	lw	a5,-20(s0)
ffffffe000201d10:	0017879b          	addiw	a5,a5,1
ffffffe000201d14:	fef42623          	sw	a5,-20(s0)
ffffffe000201d18:	fec42783          	lw	a5,-20(s0)
ffffffe000201d1c:	0007871b          	sext.w	a4,a5
ffffffe000201d20:	02100793          	li	a5,33
ffffffe000201d24:	fae7d8e3          	bge	a5,a4,ffffffe000201cd4 <rand+0x114>
ffffffe000201d28:	02200793          	li	a5,34
ffffffe000201d2c:	fef42623          	sw	a5,-20(s0)
ffffffe000201d30:	0700006f          	j	ffffffe000201da0 <rand+0x1e0>
ffffffe000201d34:	fec42783          	lw	a5,-20(s0)
ffffffe000201d38:	fe17879b          	addiw	a5,a5,-31
ffffffe000201d3c:	0007879b          	sext.w	a5,a5
ffffffe000201d40:	00006717          	auipc	a4,0x6
ffffffe000201d44:	2c070713          	addi	a4,a4,704 # ffffffe000208000 <r>
ffffffe000201d48:	00279793          	slli	a5,a5,0x2
ffffffe000201d4c:	00f707b3          	add	a5,a4,a5
ffffffe000201d50:	0007a703          	lw	a4,0(a5)
ffffffe000201d54:	fec42783          	lw	a5,-20(s0)
ffffffe000201d58:	ffd7879b          	addiw	a5,a5,-3
ffffffe000201d5c:	0007879b          	sext.w	a5,a5
ffffffe000201d60:	00006697          	auipc	a3,0x6
ffffffe000201d64:	2a068693          	addi	a3,a3,672 # ffffffe000208000 <r>
ffffffe000201d68:	00279793          	slli	a5,a5,0x2
ffffffe000201d6c:	00f687b3          	add	a5,a3,a5
ffffffe000201d70:	0007a783          	lw	a5,0(a5)
ffffffe000201d74:	00f707bb          	addw	a5,a4,a5
ffffffe000201d78:	0007871b          	sext.w	a4,a5
ffffffe000201d7c:	00006697          	auipc	a3,0x6
ffffffe000201d80:	28468693          	addi	a3,a3,644 # ffffffe000208000 <r>
ffffffe000201d84:	fec42783          	lw	a5,-20(s0)
ffffffe000201d88:	00279793          	slli	a5,a5,0x2
ffffffe000201d8c:	00f687b3          	add	a5,a3,a5
ffffffe000201d90:	00e7a023          	sw	a4,0(a5)
ffffffe000201d94:	fec42783          	lw	a5,-20(s0)
ffffffe000201d98:	0017879b          	addiw	a5,a5,1
ffffffe000201d9c:	fef42623          	sw	a5,-20(s0)
ffffffe000201da0:	fec42783          	lw	a5,-20(s0)
ffffffe000201da4:	0007871b          	sext.w	a4,a5
ffffffe000201da8:	15700793          	li	a5,343
ffffffe000201dac:	f8e7d4e3          	bge	a5,a4,ffffffe000201d34 <rand+0x174>
ffffffe000201db0:	00003797          	auipc	a5,0x3
ffffffe000201db4:	26878793          	addi	a5,a5,616 # ffffffe000205018 <initialize>
ffffffe000201db8:	00100713          	li	a4,1
ffffffe000201dbc:	00e7a023          	sw	a4,0(a5)
ffffffe000201dc0:	00003797          	auipc	a5,0x3
ffffffe000201dc4:	25c78793          	addi	a5,a5,604 # ffffffe00020501c <t>
ffffffe000201dc8:	0007a783          	lw	a5,0(a5)
ffffffe000201dcc:	00078713          	mv	a4,a5
ffffffe000201dd0:	29000793          	li	a5,656
ffffffe000201dd4:	02f767bb          	remw	a5,a4,a5
ffffffe000201dd8:	0007871b          	sext.w	a4,a5
ffffffe000201ddc:	00003797          	auipc	a5,0x3
ffffffe000201de0:	24078793          	addi	a5,a5,576 # ffffffe00020501c <t>
ffffffe000201de4:	00e7a023          	sw	a4,0(a5)
ffffffe000201de8:	00003797          	auipc	a5,0x3
ffffffe000201dec:	23478793          	addi	a5,a5,564 # ffffffe00020501c <t>
ffffffe000201df0:	0007a783          	lw	a5,0(a5)
ffffffe000201df4:	1397879b          	addiw	a5,a5,313
ffffffe000201df8:	0007879b          	sext.w	a5,a5
ffffffe000201dfc:	00006717          	auipc	a4,0x6
ffffffe000201e00:	20470713          	addi	a4,a4,516 # ffffffe000208000 <r>
ffffffe000201e04:	00279793          	slli	a5,a5,0x2
ffffffe000201e08:	00f707b3          	add	a5,a4,a5
ffffffe000201e0c:	0007a683          	lw	a3,0(a5)
ffffffe000201e10:	00003797          	auipc	a5,0x3
ffffffe000201e14:	20c78793          	addi	a5,a5,524 # ffffffe00020501c <t>
ffffffe000201e18:	0007a783          	lw	a5,0(a5)
ffffffe000201e1c:	1557879b          	addiw	a5,a5,341
ffffffe000201e20:	0007879b          	sext.w	a5,a5
ffffffe000201e24:	00006717          	auipc	a4,0x6
ffffffe000201e28:	1dc70713          	addi	a4,a4,476 # ffffffe000208000 <r>
ffffffe000201e2c:	00279793          	slli	a5,a5,0x2
ffffffe000201e30:	00f707b3          	add	a5,a4,a5
ffffffe000201e34:	0007a703          	lw	a4,0(a5)
ffffffe000201e38:	00003797          	auipc	a5,0x3
ffffffe000201e3c:	1e478793          	addi	a5,a5,484 # ffffffe00020501c <t>
ffffffe000201e40:	0007a783          	lw	a5,0(a5)
ffffffe000201e44:	1587879b          	addiw	a5,a5,344
ffffffe000201e48:	0007879b          	sext.w	a5,a5
ffffffe000201e4c:	00e6873b          	addw	a4,a3,a4
ffffffe000201e50:	0007071b          	sext.w	a4,a4
ffffffe000201e54:	00006697          	auipc	a3,0x6
ffffffe000201e58:	1ac68693          	addi	a3,a3,428 # ffffffe000208000 <r>
ffffffe000201e5c:	00279793          	slli	a5,a5,0x2
ffffffe000201e60:	00f687b3          	add	a5,a3,a5
ffffffe000201e64:	00e7a023          	sw	a4,0(a5)
ffffffe000201e68:	00003797          	auipc	a5,0x3
ffffffe000201e6c:	1b478793          	addi	a5,a5,436 # ffffffe00020501c <t>
ffffffe000201e70:	0007a783          	lw	a5,0(a5)
ffffffe000201e74:	0017879b          	addiw	a5,a5,1
ffffffe000201e78:	0007871b          	sext.w	a4,a5
ffffffe000201e7c:	00003797          	auipc	a5,0x3
ffffffe000201e80:	1a078793          	addi	a5,a5,416 # ffffffe00020501c <t>
ffffffe000201e84:	00e7a023          	sw	a4,0(a5)
ffffffe000201e88:	00003797          	auipc	a5,0x3
ffffffe000201e8c:	19478793          	addi	a5,a5,404 # ffffffe00020501c <t>
ffffffe000201e90:	0007a783          	lw	a5,0(a5)
ffffffe000201e94:	1577879b          	addiw	a5,a5,343
ffffffe000201e98:	0007879b          	sext.w	a5,a5
ffffffe000201e9c:	00006717          	auipc	a4,0x6
ffffffe000201ea0:	16470713          	addi	a4,a4,356 # ffffffe000208000 <r>
ffffffe000201ea4:	00279793          	slli	a5,a5,0x2
ffffffe000201ea8:	00f707b3          	add	a5,a4,a5
ffffffe000201eac:	0007a783          	lw	a5,0(a5)
ffffffe000201eb0:	00078713          	mv	a4,a5
ffffffe000201eb4:	00a00793          	li	a5,10
ffffffe000201eb8:	02f777b3          	remu	a5,a4,a5
ffffffe000201ebc:	00178793          	addi	a5,a5,1
ffffffe000201ec0:	00078513          	mv	a0,a5
ffffffe000201ec4:	01813403          	ld	s0,24(sp)
ffffffe000201ec8:	02010113          	addi	sp,sp,32
ffffffe000201ecc:	00008067          	ret

ffffffe000201ed0 <memset>:
ffffffe000201ed0:	fc010113          	addi	sp,sp,-64
ffffffe000201ed4:	02813c23          	sd	s0,56(sp)
ffffffe000201ed8:	04010413          	addi	s0,sp,64
ffffffe000201edc:	fca43c23          	sd	a0,-40(s0)
ffffffe000201ee0:	00058793          	mv	a5,a1
ffffffe000201ee4:	fcc43423          	sd	a2,-56(s0)
ffffffe000201ee8:	fcf42a23          	sw	a5,-44(s0)
ffffffe000201eec:	fd843783          	ld	a5,-40(s0)
ffffffe000201ef0:	fef43023          	sd	a5,-32(s0)
ffffffe000201ef4:	fe043423          	sd	zero,-24(s0)
ffffffe000201ef8:	0280006f          	j	ffffffe000201f20 <memset+0x50>
ffffffe000201efc:	fe043703          	ld	a4,-32(s0)
ffffffe000201f00:	fe843783          	ld	a5,-24(s0)
ffffffe000201f04:	00f707b3          	add	a5,a4,a5
ffffffe000201f08:	fd442703          	lw	a4,-44(s0)
ffffffe000201f0c:	0ff77713          	zext.b	a4,a4
ffffffe000201f10:	00e78023          	sb	a4,0(a5)
ffffffe000201f14:	fe843783          	ld	a5,-24(s0)
ffffffe000201f18:	00178793          	addi	a5,a5,1
ffffffe000201f1c:	fef43423          	sd	a5,-24(s0)
ffffffe000201f20:	fe843703          	ld	a4,-24(s0)
ffffffe000201f24:	fc843783          	ld	a5,-56(s0)
ffffffe000201f28:	fcf76ae3          	bltu	a4,a5,ffffffe000201efc <memset+0x2c>
ffffffe000201f2c:	fd843783          	ld	a5,-40(s0)
ffffffe000201f30:	00078513          	mv	a0,a5
ffffffe000201f34:	03813403          	ld	s0,56(sp)
ffffffe000201f38:	04010113          	addi	sp,sp,64
ffffffe000201f3c:	00008067          	ret

Disassembly of section .rodata:

ffffffe000202000 <_srodata>:
ffffffe000202000:	2e2e                	fld	ft8,200(sp)
ffffffe000202002:	6d2e                	ld	s10,200(sp)
ffffffe000202004:	5f6d                	li	t5,-5
ffffffe000202006:	6e69                	lui	t3,0x1a
ffffffe000202008:	7469                	lui	s0,0xffffa
ffffffe00020200a:	6420                	ld	s0,72(s0)
ffffffe00020200c:	21656e6f          	jal	t3,ffffffe000258222 <_ebss+0x4f282>
ffffffe000202010:	000a                	c.slli	zero,0x2
ffffffe000202012:	0000                	unimp
ffffffe000202014:	0000                	unimp
ffffffe000202016:	0000                	unimp
ffffffe000202018:	2e2e                	fld	ft8,200(sp)
ffffffe00020201a:	702e                	0x702e
ffffffe00020201c:	6f72                	ld	t5,280(sp)
ffffffe00020201e:	6e695f63          	bge	s2,t1,ffffffe00020271c <_erodata+0x548>
ffffffe000202022:	7469                	lui	s0,0xffffa
ffffffe000202024:	6420                	ld	s0,72(s0)
ffffffe000202026:	21656e6f          	jal	t3,ffffffe00025823c <_ebss+0x4f29c>
ffffffe00020202a:	000a                	c.slli	zero,0x2
ffffffe00020202c:	0000                	unimp
ffffffe00020202e:	0000                	unimp
ffffffe000202030:	730a                	ld	t1,160(sp)
ffffffe000202032:	63746977          	0x63746977
ffffffe000202036:	2068                	fld	fa0,192(s0)
ffffffe000202038:	6f74                	ld	a3,216(a4)
ffffffe00020203a:	5b20                	lw	s0,112(a4)
ffffffe00020203c:	4950                	lw	a2,20(a0)
ffffffe00020203e:	2044                	fld	fs1,128(s0)
ffffffe000202040:	203d                	0x203d
ffffffe000202042:	6425                	lui	s0,0x9
ffffffe000202044:	5020                	lw	s0,96(s0)
ffffffe000202046:	4952                	lw	s2,20(sp)
ffffffe000202048:	5449524f          	0x5449524f
ffffffe00020204c:	2059                	0x2059
ffffffe00020204e:	203d                	0x203d
ffffffe000202050:	6425                	lui	s0,0x9
ffffffe000202052:	4320                	lw	s0,64(a4)
ffffffe000202054:	544e554f          	0x544e554f
ffffffe000202058:	5245                	li	tp,-15
ffffffe00020205a:	3d20                	fld	fs0,120(a0)
ffffffe00020205c:	2520                	fld	fs0,72(a0)
ffffffe00020205e:	5d64                	lw	s1,124(a0)
ffffffe000202060:	000a                	c.slli	zero,0x2
ffffffe000202062:	0000                	unimp
ffffffe000202064:	0000                	unimp
ffffffe000202066:	0000                	unimp
ffffffe000202068:	000a                	c.slli	zero,0x2
ffffffe00020206a:	0000                	unimp
ffffffe00020206c:	0000                	unimp
ffffffe00020206e:	0000                	unimp
ffffffe000202070:	20544553          	0x20544553
ffffffe000202074:	4449505b          	0x4449505b
ffffffe000202078:	3d20                	fld	fs0,120(a0)
ffffffe00020207a:	2520                	fld	fs0,72(a0)
ffffffe00020207c:	2064                	fld	fs1,192(s0)
ffffffe00020207e:	5250                	lw	a2,36(a2)
ffffffe000202080:	4f49                	li	t5,18
ffffffe000202082:	4952                	lw	s2,20(sp)
ffffffe000202084:	5954                	lw	a3,52(a0)
ffffffe000202086:	3d20                	fld	fs0,120(a0)
ffffffe000202088:	2520                	fld	fs0,72(a0)
ffffffe00020208a:	2064                	fld	fs1,192(s0)
ffffffe00020208c:	4e554f43          	fmadd.q	ft10,fa0,ft5,fs1,rmm
ffffffe000202090:	4554                	lw	a3,12(a0)
ffffffe000202092:	2052                	fld	ft0,272(sp)
ffffffe000202094:	203d                	0x203d
ffffffe000202096:	6425                	lui	s0,0x9
ffffffe000202098:	0a5d                	addi	s4,s4,23
ffffffe00020209a:	0000                	unimp
ffffffe00020209c:	0000                	unimp
ffffffe00020209e:	0000                	unimp
ffffffe0002020a0:	4449505b          	0x4449505b
ffffffe0002020a4:	3d20                	fld	fs0,120(a0)
ffffffe0002020a6:	2520                	fld	fs0,72(a0)
ffffffe0002020a8:	5d64                	lw	s1,124(a0)
ffffffe0002020aa:	6920                	ld	s0,80(a0)
ffffffe0002020ac:	75722073          	csrs	0x757,tp
ffffffe0002020b0:	6e6e                	ld	t3,216(sp)
ffffffe0002020b2:	6e69                	lui	t3,0x1a
ffffffe0002020b4:	61202e67          	0x61202e67
ffffffe0002020b8:	7475                	lui	s0,0xffffd
ffffffe0002020ba:	6e695f6f          	jal	t5,ffffffe0002977a0 <_ebss+0x8e800>
ffffffe0002020be:	6f6c5f63          	bge	s8,s6,ffffffe0002027bc <_erodata+0x5e8>
ffffffe0002020c2:	5f6c6163          	bltu	s8,s6,ffffffe0002026a4 <_erodata+0x4d0>
ffffffe0002020c6:	6176                	ld	sp,344(sp)
ffffffe0002020c8:	2072                	fld	ft0,280(sp)
ffffffe0002020ca:	203d                	0x203d
ffffffe0002020cc:	6425                	lui	s0,0x9
ffffffe0002020ce:	000a                	c.slli	zero,0x2
ffffffe0002020d0:	205d535b          	0x205d535b
ffffffe0002020d4:	65707553          	0x65707553
ffffffe0002020d8:	7672                	ld	a2,312(sp)
ffffffe0002020da:	7369                	lui	t1,0xffffa
ffffffe0002020dc:	4d20726f          	jal	tp,ffffffe0002095ae <_ebss+0x60e>
ffffffe0002020e0:	2065646f          	jal	s0,ffffffe0002582e6 <_ebss+0x4f346>
ffffffe0002020e4:	6954                	ld	a3,144(a0)
ffffffe0002020e6:	656d                	lui	a0,0x1b
ffffffe0002020e8:	2072                	fld	ft0,280(sp)
ffffffe0002020ea:	6e49                	lui	t3,0x12
ffffffe0002020ec:	6574                	ld	a3,200(a0)
ffffffe0002020ee:	7272                	ld	tp,312(sp)
ffffffe0002020f0:	7075                	c.lui	zero,0xffffd
ffffffe0002020f2:	0a74                	addi	a3,sp,284
ffffffe0002020f4:	0000                	unimp
ffffffe0002020f6:	0000                	unimp
ffffffe0002020f8:	7865                	lui	a6,0xffff9
ffffffe0002020fa:	74706563          	bltu	zero,t2,ffffffe000202844 <_erodata+0x670>
ffffffe0002020fe:	6f69                	lui	t5,0x1a
ffffffe000202100:	3a6e                	fld	fs4,248(sp)
ffffffe000202102:	2520                	fld	fs0,72(a0)
ffffffe000202104:	0a78                	addi	a4,sp,284
ffffffe000202106:	0000                	unimp
ffffffe000202108:	6170                	ld	a2,192(a0)
ffffffe00020210a:	702e                	0x702e
ffffffe00020210c:	6e70                	ld	a2,216(a2)
ffffffe00020210e:	203a                	fld	ft0,392(sp)
ffffffe000202110:	7825                	lui	a6,0xfffe9
ffffffe000202112:	202c                	fld	fa1,64(s0)
ffffffe000202114:	6170                	ld	a2,192(a0)
ffffffe000202116:	6f2e                	ld	t5,200(sp)
ffffffe000202118:	6666                	ld	a2,88(sp)
ffffffe00020211a:	3a746573          	csrrsi	a0,0x3a7,8
ffffffe00020211e:	2520                	fld	fs0,72(a0)
ffffffe000202120:	0a78                	addi	a4,sp,284
ffffffe000202122:	0000                	unimp
ffffffe000202124:	0000                	unimp
ffffffe000202126:	0000                	unimp
ffffffe000202128:	7825                	lui	a6,0xfffe9
ffffffe00020212a:	2520                	fld	fs0,72(a0)
ffffffe00020212c:	2078                	fld	fa4,192(s0)
ffffffe00020212e:	0000                	unimp
ffffffe000202130:	6e65                	lui	t3,0x19
ffffffe000202132:	7274                	ld	a3,224(a2)
ffffffe000202134:	3179                	addiw	sp,sp,-2
ffffffe000202136:	203a                	fld	ft0,392(sp)
ffffffe000202138:	7825                	lui	a6,0xfffe9
ffffffe00020213a:	202c                	fld	fa1,64(s0)
ffffffe00020213c:	6e65                	lui	t3,0x19
ffffffe00020213e:	7274                	ld	a3,224(a2)
ffffffe000202140:	3279                	addiw	tp,tp,-2
ffffffe000202142:	203a                	fld	ft0,392(sp)
ffffffe000202144:	7825                	lui	a6,0xfffe9
ffffffe000202146:	000a                	c.slli	zero,0x2
ffffffe000202148:	0044                	addi	s1,sp,4
ffffffe00020214a:	0000                	unimp
ffffffe00020214c:	0000                	unimp
ffffffe00020214e:	0000                	unimp
ffffffe000202150:	6425                	lui	s0,0x9
ffffffe000202152:	0000                	unimp
ffffffe000202154:	0000                	unimp
ffffffe000202156:	0000                	unimp
ffffffe000202158:	4820                	lw	s0,80(s0)
ffffffe00020215a:	6c65                	lui	s8,0x19
ffffffe00020215c:	6f6c                	ld	a1,216(a4)
ffffffe00020215e:	5220                	lw	s0,96(a2)
ffffffe000202160:	5349                	li	t1,-14
ffffffe000202162:	0a562d43          	fmadd.d	fs10,fa2,ft5,ft1,rdn
ffffffe000202166:	0000                	unimp
ffffffe000202168:	6e72656b          	0x6e72656b
ffffffe00020216c:	6c65                	lui	s8,0x19
ffffffe00020216e:	6920                	ld	s0,80(a0)
ffffffe000202170:	75722073          	csrs	0x757,tp
ffffffe000202174:	6e6e                	ld	t3,216(sp)
ffffffe000202176:	6e69                	lui	t3,0x1a
ffffffe000202178:	000a2167          	0xa2167
ffffffe00020217c:	f90c                	sd	a1,48(a0)
ffffffe00020217e:	ffff                	0xffff
ffffffe000202180:	f66c                	sd	a1,232(a2)
ffffffe000202182:	ffff                	0xffff
ffffffe000202184:	f98c                	sd	a1,48(a1)
ffffffe000202186:	ffff                	0xffff
ffffffe000202188:	f98c                	sd	a1,48(a1)
ffffffe00020218a:	ffff                	0xffff
ffffffe00020218c:	f98c                	sd	a1,48(a1)
ffffffe00020218e:	ffff                	0xffff
ffffffe000202190:	f98c                	sd	a1,48(a1)
ffffffe000202192:	ffff                	0xffff
ffffffe000202194:	f98c                	sd	a1,48(a1)
ffffffe000202196:	ffff                	0xffff
ffffffe000202198:	f98c                	sd	a1,48(a1)
ffffffe00020219a:	ffff                	0xffff
ffffffe00020219c:	f98c                	sd	a1,48(a1)
ffffffe00020219e:	ffff                	0xffff
ffffffe0002021a0:	f56c                	sd	a1,232(a0)
ffffffe0002021a2:	ffff                	0xffff
ffffffe0002021a4:	f98c                	sd	a1,48(a1)
ffffffe0002021a6:	ffff                	0xffff
ffffffe0002021a8:	f98c                	sd	a1,48(a1)
ffffffe0002021aa:	ffff                	0xffff
ffffffe0002021ac:	f98c                	sd	a1,48(a1)
ffffffe0002021ae:	ffff                	0xffff
ffffffe0002021b0:	f98c                	sd	a1,48(a1)
ffffffe0002021b2:	ffff                	0xffff
ffffffe0002021b4:	f98c                	sd	a1,48(a1)
ffffffe0002021b6:	ffff                	0xffff
ffffffe0002021b8:	f98c                	sd	a1,48(a1)
ffffffe0002021ba:	ffff                	0xffff
ffffffe0002021bc:	f8b0                	sd	a2,112(s1)
ffffffe0002021be:	ffff                	0xffff
ffffffe0002021c0:	f98c                	sd	a1,48(a1)
ffffffe0002021c2:	ffff                	0xffff
ffffffe0002021c4:	f7a4                	sd	s1,104(a5)
ffffffe0002021c6:	ffff                	0xffff
ffffffe0002021c8:	f98c                	sd	a1,48(a1)
ffffffe0002021ca:	ffff                	0xffff
ffffffe0002021cc:	f98c                	sd	a1,48(a1)
ffffffe0002021ce:	ffff                	0xffff
ffffffe0002021d0:	f578                	sd	a4,232(a0)
ffffffe0002021d2:	ffff                	0xffff

Disassembly of section .data:

ffffffe000203000 <TIMECLOCK>:
ffffffe000203000:	9680                	0x9680
ffffffe000203002:	0098                	addi	a4,sp,64
ffffffe000203004:	0000                	unimp
	...

Disassembly of section .bss:

ffffffe000204000 <_sbss>:
	...

ffffffe000205000 <kmem>:
	...

ffffffe000205008 <idle>:
	...

ffffffe000205010 <current>:
	...

ffffffe000205018 <initialize>:
ffffffe000205018:	0000                	unimp
	...

ffffffe00020501c <t>:
ffffffe00020501c:	0000                	unimp
	...

ffffffe000205020 <task>:
	...

ffffffe000206000 <early_pgtbl>:
	...

ffffffe000207000 <swapper_pg_dir>:
	...

ffffffe000208000 <r>:
	...

Disassembly of section .debug_info:

0000000000000000 <.debug_info>:
       0:	0111                	addi	sp,sp,4
       2:	0000                	unimp
       4:	0005                	c.nop	1
       6:	0801                	addi	a6,a6,0
       8:	0000                	unimp
       a:	0000                	unimp
       c:	2505                	addiw	a0,a0,1
       e:	0000                	unimp
      10:	1d00                	addi	s0,sp,688
      12:	0000                	unimp
      14:	0000                	unimp
      16:	0008                	0x8
      18:	0000                	unimp
      1a:	000c                	0xc
	...
      28:	0000                	unimp
      2a:	b806                	fsd	ft1,48(sp)
      2c:	0000                	unimp
      2e:	0300                	addi	s0,sp,384
      30:	1704                	addi	s1,sp,928
      32:	0036                	c.slli	zero,0xd
      34:	0000                	unimp
      36:	0702                	c.slli64	a4
      38:	0000                	unimp
      3a:	0000                	unimp
      3c:	0000ef07          	0xef07
      40:	1000                	addi	s0,sp,32
      42:	0802                	c.slli64	a6
      44:	6008                	ld	a0,0(s0)
      46:	0000                	unimp
      48:	0300                	addi	s0,sp,384
      4a:	000000bf 00006009 	0x6009000000bf
      52:	0000                	unimp
      54:	0003da03          	lhu	s4,0(t2)
      58:	0a00                	addi	s0,sp,272
      5a:	0060                	addi	s0,sp,12
      5c:	0000                	unimp
      5e:	0008                	0x8
      60:	0502                	c.slli64	a0
      62:	0012                	c.slli	zero,0x4
      64:	0000                	unimp
      66:	d008                	sw	a0,32(s0)
      68:	0000                	unimp
      6a:	0100                	addi	s0,sp,128
      6c:	00360f03          	lb	t5,3(a2) # 1003 <BASE_ADDR-0x801feffd>
      70:	0000                	unimp
      72:	0309                	addi	t1,t1,2
      74:	3000                	fld	fs0,32(s0)
      76:	0020                	addi	s0,sp,8
      78:	ffe0                	sd	s0,248(a5)
      7a:	ffff                	0xffff
      7c:	1b09                	addi	s6,s6,-30
      7e:	0000                	unimp
      80:	0200                	addi	s0,sp,256
      82:	0f0d                	addi	t5,t5,3
      84:	003c                	addi	a5,sp,8
      86:	0000                	unimp
      88:	00b5                	addi	ra,ra,13
      8a:	0000                	unimp
      8c:	b501                	j	fffffffffffffe8c <_ebss+0x1fffdf6eec>
      8e:	0000                	unimp
      90:	0100                	addi	s0,sp,128
      92:	00b5                	addi	ra,ra,13
      94:	0000                	unimp
      96:	2a01                	sext.w	s4,s4
      98:	0000                	unimp
      9a:	0100                	addi	s0,sp,128
      9c:	002a                	c.slli	zero,0xa
      9e:	0000                	unimp
      a0:	2a01                	sext.w	s4,s4
      a2:	0000                	unimp
      a4:	0100                	addi	s0,sp,128
      a6:	002a                	c.slli	zero,0xa
      a8:	0000                	unimp
      aa:	2a01                	sext.w	s4,s4
      ac:	0000                	unimp
      ae:	0100                	addi	s0,sp,128
      b0:	002a                	c.slli	zero,0xa
      b2:	0000                	unimp
      b4:	0a00                	addi	s0,sp,272
      b6:	0504                	addi	s1,sp,640
      b8:	6e69                	lui	t3,0x1a
      ba:	0074                	addi	a3,sp,12
      bc:	0000da0b          	0xda0b
      c0:	0100                	addi	s0,sp,128
      c2:	0611                	addi	a2,a2,4
      c4:	0430                	addi	a2,sp,520
      c6:	0020                	addi	s0,sp,8
      c8:	ffe0                	sd	s0,248(a5)
      ca:	ffff                	0xffff
      cc:	0064                	addi	s1,sp,12
      ce:	0000                	unimp
      d0:	0000                	unimp
      d2:	0000                	unimp
      d4:	9c01                	subw	s0,s0,s0
      d6:	00e8                	addi	a0,sp,76
      d8:	0000                	unimp
      da:	b304                	fsd	fs1,32(a4)
      dc:	0000                	unimp
      de:	1300                	addi	s0,sp,416
      e0:	0036                	c.slli	zero,0xd
      e2:	0000                	unimp
      e4:	9102                	jalr	sp
      e6:	0068                	addi	a0,sp,12
      e8:	c50c                	sw	a1,8(a0)
      ea:	0000                	unimp
      ec:	0100                	addi	s0,sp,128
      ee:	0f0a                	slli	t5,t5,0x2
      f0:	0036                	c.slli	zero,0xd
      f2:	0000                	unimp
      f4:	0408                	addi	a0,sp,512
      f6:	0020                	addi	s0,sp,8
      f8:	ffe0                	sd	s0,248(a5)
      fa:	ffff                	0xffff
      fc:	0028                	addi	a0,sp,8
      fe:	0000                	unimp
     100:	0000                	unimp
     102:	0000                	unimp
     104:	9c01                	subw	s0,s0,s0
     106:	c904                	sw	s1,16(a0)
     108:	0000                	unimp
     10a:	0c00                	addi	s0,sp,528
     10c:	0036                	c.slli	zero,0xd
     10e:	0000                	unimp
     110:	9102                	jalr	sp
     112:	0068                	addi	a0,sp,12
     114:	2500                	fld	fs0,8(a0)
     116:	0000                	unimp
     118:	0500                	addi	s0,sp,640
     11a:	0100                	addi	s0,sp,128
     11c:	d408                	sw	a0,40(s0)
     11e:	0000                	unimp
     120:	0100                	addi	s0,sp,128
     122:	00b0                	addi	a2,sp,72
     124:	0000                	unimp
     126:	0124                	addi	s1,sp,136
     128:	0020                	addi	s0,sp,8
     12a:	ffe0                	sd	s0,248(a5)
     12c:	ffff                	0xffff
     12e:	05e8                	addi	a0,sp,716
     130:	00f6                	slli	ra,ra,0x1d
     132:	0000                	unimp
     134:	00fe                	slli	ra,ra,0x1f
     136:	0000                	unimp
     138:	012c                	addi	a1,sp,136
     13a:	0000                	unimp
     13c:	8001                	c.srli64	s0
     13e:	0025                	c.nop	9
     140:	0000                	unimp
     142:	0005                	c.nop	1
     144:	0801                	addi	a6,a6,0
     146:	00e8                	addi	a0,sp,76
     148:	0000                	unimp
     14a:	a001                	j	14a <BASE_ADDR-0x801ffeb6>
     14c:	00000003          	lb	zero,0(zero) # 0 <BASE_ADDR-0x80200000>
     150:	2000                	fld	fs0,0(s0)
     152:	e000                	sd	s0,0(s0)
     154:	ffff                	0xffff
     156:	b8ff                	0xb8ff
     158:	3802                	fld	fa6,32(sp)
     15a:	0001                	nop
     15c:	fe00                	sd	s0,56(a2)
     15e:	0000                	unimp
     160:	2c00                	fld	fs0,24(s0)
     162:	0001                	nop
     164:	0100                	addi	s0,sp,128
     166:	b880                	fsd	fs0,48(s1)
     168:	0001                	nop
     16a:	0500                	addi	s0,sp,640
     16c:	0100                	addi	s0,sp,128
     16e:	fc08                	sd	a0,56(s0)
     170:	0000                	unimp
     172:	0900                	addi	s0,sp,144
     174:	0025                	c.nop	9
     176:	0000                	unimp
     178:	831d                	srli	a4,a4,0x7
     17a:	0000                	unimp
     17c:	0800                	addi	s0,sp,16
     17e:	0000                	unimp
     180:	3b00                	fld	fs0,48(a4)
	...
     18a:	0000                	unimp
     18c:	e600                	sd	s0,8(a2)
     18e:	0004                	0x4
     190:	0a00                	addi	s0,sp,272
     192:	00b8                	addi	a4,sp,72
     194:	0000                	unimp
     196:	0405                	addi	s0,s0,1
     198:	00003617          	auipc	a2,0x3
     19c:	0200                	addi	s0,sp,256
     19e:	0708                	addi	a0,sp,896
     1a0:	0000                	unimp
     1a2:	0000                	unimp
     1a4:	6e75720b          	0x6e75720b
     1a8:	0800                	addi	s0,sp,16
     1aa:	0302                	c.slli64	t1
     1ac:	5608                	lw	a0,40(a2)
     1ae:	0000                	unimp
     1b0:	0400                	addi	s0,sp,512
     1b2:	000000b3          	add	ra,zero,zero
     1b6:	0402                	c.slli64	s0
     1b8:	0056                	c.slli	zero,0x15
     1ba:	0000                	unimp
     1bc:	0300                	addi	s0,sp,384
     1be:	003d                	c.nop	15
     1c0:	0000                	unimp
     1c2:	0802                	c.slli64	a6
     1c4:	1205                	addi	tp,tp,-31
     1c6:	0000                	unimp
     1c8:	0c00                	addi	s0,sp,528
     1ca:	0504                	addi	s1,sp,640
     1cc:	6e69                	lui	t3,0x1a
     1ce:	0074                	addi	a3,sp,12
     1d0:	740d                	lui	s0,0xfffe3
     1d2:	0000                	unimp
     1d4:	7400                	ld	s0,40(s0)
     1d6:	0000                	unimp
     1d8:	0e00                	addi	s0,sp,784
     1da:	0200                	addi	s0,sp,256
     1dc:	0801                	addi	a6,a6,0
     1de:	047f                	0x47f
     1e0:	0000                	unimp
     1e2:	0000740f          	0x740f
     1e6:	1000                	addi	s0,sp,32
     1e8:	0000014b          	fnmsub.s	ft2,ft0,ft0,ft0,rne
     1ec:	0701                	addi	a4,a4,0
     1ee:	690d                	lui	s2,0x3
     1f0:	0000                	unimp
     1f2:	1100                	addi	s0,sp,160
     1f4:	0108                	addi	a0,sp,128
     1f6:	0109                	addi	sp,sp,2
     1f8:	00a1                	addi	ra,ra,8
     1fa:	0000                	unimp
     1fc:	6404                	ld	s1,8(s0)
     1fe:	0001                	nop
     200:	0100                	addi	s0,sp,128
     202:	560a                	lw	a2,160(sp)
     204:	0000                	unimp
     206:	0000                	unimp
     208:	4612                	lw	a2,4(sp)
     20a:	0001                	nop
     20c:	0100                	addi	s0,sp,128
     20e:	008c030b          	0x8c030b
     212:	0000                	unimp
     214:	0309                	addi	t1,t1,2
     216:	5000                	lw	s0,32(s0)
     218:	0020                	addi	s0,sp,8
     21a:	ffe0                	sd	s0,248(a5)
     21c:	ffff                	0xffff
     21e:	7b05                	lui	s6,0xfffe1
     220:	0001                	nop
     222:	0300                	addi	s0,sp,384
     224:	6205                	lui	tp,0x1
     226:	0000                	unimp
     228:	cd00                	sw	s0,24(a0)
     22a:	0000                	unimp
     22c:	0100                	addi	s0,sp,128
     22e:	00cd                	addi	ra,ra,19
     230:	0000                	unimp
     232:	7b030013          	addi	zero,t1,1968 # ffffffffffffa7b0 <_ebss+0x1fffdf1810>
     236:	0000                	unimp
     238:	0500                	addi	s0,sp,640
     23a:	0188                	addi	a0,sp,192
     23c:	0000                	unimp
     23e:	0704                	addi	s1,sp,896
     240:	00f1                	addi	ra,ra,28
     242:	0000                	unimp
     244:	00f1                	addi	ra,ra,28
     246:	0000                	unimp
     248:	f101                	bnez	a0,148 <BASE_ADDR-0x801ffeb8>
     24a:	0000                	unimp
     24c:	0100                	addi	s0,sp,128
     24e:	0062                	c.slli	zero,0x18
     250:	0000                	unimp
     252:	2a01                	sext.w	s4,s4
     254:	0000                	unimp
     256:	0000                	unimp
     258:	0814                	addi	a3,sp,16
     25a:	7315                	lui	t1,0xfffe5
     25c:	0001                	nop
     25e:	0100                	addi	s0,sp,128
     260:	062d                	addi	a2,a2,11
     262:	05e8                	addi	a0,sp,716
     264:	0020                	addi	s0,sp,8
     266:	ffe0                	sd	s0,248(a5)
     268:	ffff                	0xffff
     26a:	0044                	addi	s1,sp,4
     26c:	0000                	unimp
     26e:	0000                	unimp
     270:	0000                	unimp
     272:	9c01                	subw	s0,s0,s0
     274:	5906                	lw	s2,96(sp)
     276:	0001                	nop
     278:	2600                	fld	fs0,8(a2)
     27a:	0568                	addi	a0,sp,652
     27c:	0020                	addi	s0,sp,8
     27e:	ffe0                	sd	s0,248(a5)
     280:	ffff                	0xffff
     282:	0080                	addi	s0,sp,64
     284:	0000                	unimp
     286:	0000                	unimp
     288:	0000                	unimp
     28a:	9c01                	subw	s0,s0,s0
     28c:	0156                	slli	sp,sp,0x15
     28e:	0000                	unimp
     290:	00018207          	0x18207
     294:	2600                	fld	fs0,8(a2)
     296:	00015617          	auipc	a2,0x15
     29a:	0200                	addi	s0,sp,256
     29c:	5891                	li	a7,-28
     29e:	6516                	ld	a0,320(sp)
     2a0:	646e                	ld	s0,216(sp)
     2a2:	0100                	addi	s0,sp,128
     2a4:	2426                	fld	fs0,72(sp)
     2a6:	0156                	slli	sp,sp,0x15
     2a8:	0000                	unimp
     2aa:	9102                	jalr	sp
     2ac:	1750                	addi	a2,sp,932
     2ae:	0154                	addi	a3,sp,132
     2b0:	0000                	unimp
     2b2:	2701                	sext.w	a4,a4
     2b4:	0001560b          	0x1560b
     2b8:	0200                	addi	s0,sp,256
     2ba:	6891                	lui	a7,0x4
     2bc:	0300                	addi	s0,sp,384
     2be:	0074                	addi	a3,sp,12
     2c0:	0000                	unimp
     2c2:	6d06                	ld	s10,64(sp)
     2c4:	0001                	nop
     2c6:	1700                	addi	s0,sp,928
     2c8:	04f0                	addi	a2,sp,588
     2ca:	0020                	addi	s0,sp,8
     2cc:	ffe0                	sd	s0,248(a5)
     2ce:	ffff                	0xffff
     2d0:	0078                	addi	a4,sp,12
     2d2:	0000                	unimp
     2d4:	0000                	unimp
     2d6:	0000                	unimp
     2d8:	9c01                	subw	s0,s0,s0
     2da:	0191                	addi	gp,gp,4
     2dc:	0000                	unimp
     2de:	00015407          	0x15407
     2e2:	1700                	addi	s0,sp,928
     2e4:	00002a13          	slti	s4,zero,0
     2e8:	0200                	addi	s0,sp,256
     2ea:	5891                	li	a7,-28
     2ec:	7208                	ld	a0,32(a2)
     2ee:	1800                	addi	s0,sp,48
     2f0:	0056                	c.slli	zero,0x15
     2f2:	0000                	unimp
     2f4:	9102                	jalr	sp
     2f6:	0068                	addi	a0,sp,12
     2f8:	3f18                	fld	fa4,56(a4)
     2fa:	0001                	nop
     2fc:	0100                	addi	s0,sp,128
     2fe:	080d                	addi	a6,a6,3
     300:	002a                	c.slli	zero,0xa
     302:	0000                	unimp
     304:	0494                	addi	a3,sp,576
     306:	0020                	addi	s0,sp,8
     308:	ffe0                	sd	s0,248(a5)
     30a:	ffff                	0xffff
     30c:	005c                	addi	a5,sp,4
     30e:	0000                	unimp
     310:	0000                	unimp
     312:	0000                	unimp
     314:	9c01                	subw	s0,s0,s0
     316:	7208                	ld	a0,32(a2)
     318:	0e00                	addi	s0,sp,784
     31a:	0056                	c.slli	zero,0x15
     31c:	0000                	unimp
     31e:	9102                	jalr	sp
     320:	0068                	addi	a0,sp,12
     322:	0c00                	addi	s0,sp,528
     324:	05000003          	lb	zero,80(zero) # 50 <BASE_ADDR-0x801fffb0>
     328:	0100                	addi	s0,sp,128
     32a:	6e08                	ld	a0,24(a2)
     32c:	0002                	c.slli64	zero
     32e:	1000                	addi	s0,sp,32
     330:	0025                	c.nop	9
     332:	0000                	unimp
     334:	c31d                	beqz	a4,35a <BASE_ADDR-0x801ffca6>
     336:	0000                	unimp
     338:	0800                	addi	s0,sp,16
     33a:	0000                	unimp
     33c:	8c00                	0x8c00
	...
     346:	0000                	unimp
     348:	7e00                	ld	s0,56(a2)
     34a:	0006                	c.slli	zero,0x1
     34c:	1100                	addi	s0,sp,160
     34e:	00b8                	addi	a4,sp,72
     350:	0000                	unimp
     352:	0406                	slli	s0,s0,0x1
     354:	00003617          	auipc	a2,0x3
     358:	0600                	addi	s0,sp,768
     35a:	0708                	addi	a0,sp,896
     35c:	0000                	unimp
     35e:	0000                	unimp
     360:	0001f507          	0x1f507
     364:	1000                	addi	s0,sp,32
     366:	00006113          	ori	sp,zero,0
     36a:	0100                	addi	s0,sp,128
     36c:	025a                	slli	tp,tp,0x16
     36e:	0000                	unimp
     370:	0c14                	addi	a3,sp,528
     372:	002a                	c.slli	zero,0xa
     374:	0000                	unimp
     376:	0100                	addi	s0,sp,128
     378:	01ac                	addi	a1,sp,200
     37a:	0000                	unimp
     37c:	0c15                	addi	s8,s8,5
     37e:	002a                	c.slli	zero,0xa
     380:	0000                	unimp
     382:	0008                	0x8
     384:	00021507          	0x21507
     388:	7000                	ld	s0,32(s0)
     38a:	8a19                	andi	a2,a2,6
     38c:	0000                	unimp
     38e:	0300                	addi	s0,sp,384
     390:	6172                	ld	sp,280(sp)
     392:	1a00                	addi	s0,sp,304
     394:	002a                	c.slli	zero,0xa
     396:	0000                	unimp
     398:	0300                	addi	s0,sp,384
     39a:	1b007073          	csrci	0x1b0,0
     39e:	002a                	c.slli	zero,0xa
     3a0:	0000                	unimp
     3a2:	0308                	addi	a0,sp,384
     3a4:	8a1c0073          	0x8a1c0073
     3a8:	0000                	unimp
     3aa:	1000                	addi	s0,sp,32
     3ac:	0b00                	addi	s0,sp,400
     3ae:	002a                	c.slli	zero,0xa
     3b0:	0000                	unimp
     3b2:	009a                	slli	ra,ra,0x6
     3b4:	0000                	unimp
     3b6:	360c                	fld	fa1,40(a2)
     3b8:	0000                	unimp
     3ba:	0b00                	addi	s0,sp,400
     3bc:	0700                	addi	s0,sp,896
     3be:	01c6                	slli	gp,gp,0x11
     3c0:	0000                	unimp
     3c2:	2098                	fld	fa4,0(s1)
     3c4:	00ed                	addi	ra,ra,27
     3c6:	0000                	unimp
     3c8:	f501                	bnez	a0,2d0 <BASE_ADDR-0x801ffd30>
     3ca:	0001                	nop
     3cc:	2100                	fld	fs0,0(a0)
     3ce:	ed19                	bnez	a0,3ec <BASE_ADDR-0x801ffc14>
     3d0:	0000                	unimp
     3d2:	0000                	unimp
     3d4:	8f01                	sub	a4,a4,s0
     3d6:	0001                	nop
     3d8:	2200                	fld	fs0,0(a2)
     3da:	2a0c                	fld	fa1,16(a2)
     3dc:	0000                	unimp
     3de:	0800                	addi	s0,sp,16
     3e0:	be01                	j	fffffffffffffef0 <_ebss+0x1fffdf6f50>
     3e2:	0001                	nop
     3e4:	2300                	fld	fs0,0(a4)
     3e6:	2a0c                	fld	fa1,16(a2)
     3e8:	0000                	unimp
     3ea:	1000                	addi	s0,sp,32
     3ec:	d901                	beqz	a0,2fc <BASE_ADDR-0x801ffd04>
     3ee:	0001                	nop
     3f0:	2400                	fld	fs0,8(s0)
     3f2:	2a0c                	fld	fa1,16(a2)
     3f4:	0000                	unimp
     3f6:	1800                	addi	s0,sp,48
     3f8:	64697003          	0x64697003
     3fc:	2500                	fld	fs0,8(a0)
     3fe:	002a                	c.slli	zero,0xa
     400:	0000                	unimp
     402:	0120                	addi	s0,sp,136
     404:	01d2                	slli	gp,gp,0x14
     406:	0000                	unimp
     408:	00611a27          	0x611a27
     40c:	0000                	unimp
     40e:	0028                	addi	a0,sp,8
     410:	3d08                	fld	fa0,56(a0)
     412:	0000                	unimp
     414:	0600                	addi	s0,sp,768
     416:	0508                	addi	a0,sp,640
     418:	0012                	c.slli	zero,0x4
     41a:	0000                	unimp
     41c:	0412                	slli	s0,s0,0x4
     41e:	6905                	lui	s2,0x1
     420:	746e                	ld	s0,248(sp)
     422:	0900                	addi	s0,sp,144
     424:	01b4                	addi	a3,sp,200
     426:	0000                	unimp
     428:	0001140b          	0x1140b
     42c:	0900                	addi	s0,sp,144
     42e:	20500803          	lb	a6,517(zero) # 205 <BASE_ADDR-0x801ffdfb>
     432:	e000                	sd	s0,0(s0)
     434:	ffff                	0xffff
     436:	08ff                	0x8ff
     438:	009a                	slli	ra,ra,0x6
     43a:	0000                	unimp
     43c:	2309                	addiw	t1,t1,2
     43e:	0002                	c.slli64	zero
     440:	0c00                	addi	s0,sp,528
     442:	0114                	addi	a3,sp,128
     444:	0000                	unimp
     446:	0309                	addi	t1,t1,2
     448:	5010                	lw	a2,32(s0)
     44a:	0020                	addi	s0,sp,8
     44c:	ffe0                	sd	s0,248(a5)
     44e:	ffff                	0xffff
     450:	0001140b          	0x1140b
     454:	3d00                	fld	fs0,56(a0)
     456:	0001                	nop
     458:	0c00                	addi	s0,sp,528
     45a:	0036                	c.slli	zero,0xd
     45c:	0000                	unimp
     45e:	001f 9d09 0001      	0x19d09001f
     464:	0d00                	addi	s0,sp,656
     466:	012d                	addi	sp,sp,11
     468:	0000                	unimp
     46a:	0309                	addi	t1,t1,2
     46c:	5020                	lw	s0,96(s0)
     46e:	0020                	addi	s0,sp,8
     470:	ffe0                	sd	s0,248(a5)
     472:	ffff                	0xffff
     474:	00024413          	xori	s0,tp,0
     478:	0100                	addi	s0,sp,128
     47a:	0d09                	addi	s10,s10,2
     47c:	0168                	addi	a0,sp,140
     47e:	0000                	unimp
     480:	140a                	slli	s0,s0,0x22
     482:	0001                	nop
     484:	0a00                	addi	s0,sp,272
     486:	0114                	addi	a3,sp,128
     488:	0000                	unimp
     48a:	1400                	addi	s0,sp,544
     48c:	0000017b          	0x17b
     490:	0505                	addi	a0,a0,1
     492:	f905                	bnez	a0,3c2 <BASE_ADDR-0x801ffc3e>
     494:	0000                	unimp
     496:	7f00                	ld	s0,56(a4)
     498:	0001                	nop
     49a:	0a00                	addi	s0,sp,272
     49c:	017f                	0x17f
     49e:	0000                	unimp
     4a0:	0004                	0x4
     4a2:	8b08                	0x8b08
     4a4:	0001                	nop
     4a6:	0600                	addi	s0,sp,768
     4a8:	0801                	addi	a6,a6,0
     4aa:	047f                	0x47f
     4ac:	0000                	unimp
     4ae:	8415                	srai	s0,s0,0x5
     4b0:	0001                	nop
     4b2:	1600                	addi	s0,sp,800
     4b4:	0195                	addi	gp,gp,5
     4b6:	0000                	unimp
     4b8:	0801                	addi	a6,a6,0
     4ba:	9e0d                	subw	a2,a2,a1
     4bc:	0001                	nop
     4be:	0400                	addi	s0,sp,512
     4c0:	0d00                	addi	s0,sp,656
     4c2:	0255                	addi	tp,tp,21
     4c4:	0000                	unimp
     4c6:	002a0403          	lb	s0,2(s4)
     4ca:	0000                	unimp
     4cc:	000001af          	0x1af
     4d0:	0004                	0x4
     4d2:	3f0d                	addiw	t5,t5,-29
     4d4:	0001                	nop
     4d6:	0400                	addi	s0,sp,512
     4d8:	2a09                	addiw	s4,s4,2
     4da:	0000                	unimp
     4dc:	c000                	sw	s0,0(s0)
     4de:	0001                	nop
     4e0:	0400                	addi	s0,sp,512
     4e2:	1700                	addi	s0,sp,928
     4e4:	00000197          	auipc	gp,0x0
     4e8:	9501                	srai	a0,a0,0x20
     4ea:	1c06                	slli	s8,s8,0x21
     4ec:	e000200b          	0xe000200b
     4f0:	ffff                	0xffff
     4f2:	a0ff                	0xa0ff
     4f4:	0000                	unimp
     4f6:	0000                	unimp
     4f8:	0000                	unimp
     4fa:	0100                	addi	s0,sp,128
     4fc:	099c                	addi	a5,sp,208
     4fe:	0002                	c.slli64	zero
     500:	0500                	addi	s0,sp,640
     502:	4f4d                	li	t5,19
     504:	0044                	addi	s1,sp,4
     506:	0c96                	slli	s9,s9,0x5
     508:	002a                	c.slli	zero,0xa
     50a:	0000                	unimp
     50c:	9102                	jalr	sp
     50e:	0258                	addi	a4,sp,260
     510:	01e2                	slli	gp,gp,0x18
     512:	0000                	unimp
     514:	002a0c97          	auipc	s9,0x2a0
     518:	0000                	unimp
     51a:	9102                	jalr	sp
     51c:	0268                	addi	a0,sp,268
     51e:	01b9                	addi	gp,gp,14
     520:	0000                	unimp
     522:	0998                	addi	a4,sp,208
     524:	00f9                	addi	ra,ra,30
     526:	0000                	unimp
     528:	9102                	jalr	sp
     52a:	0064                	addi	s1,sp,12
     52c:	0c0e                	slli	s8,s8,0x3
     52e:	0002                	c.slli64	zero
     530:	7400                	ld	s0,40(s0)
     532:	08fc                	addi	a5,sp,92
     534:	0020                	addi	s0,sp,8
     536:	ffe0                	sd	s0,248(a5)
     538:	ffff                	0xffff
     53a:	0220                	addi	s0,sp,264
     53c:	0000                	unimp
     53e:	0000                	unimp
     540:	0000                	unimp
     542:	9c01                	subw	s0,s0,s0
     544:	0282                	c.slli64	t0
     546:	0000                	unimp
     548:	0102                	c.slli64	sp
     54a:	0002                	c.slli64	zero
     54c:	7600                	ld	s0,40(a2)
     54e:	f909                	bnez	a0,460 <BASE_ADDR-0x801ffba0>
     550:	0000                	unimp
     552:	0200                	addi	s0,sp,256
     554:	6c91                	lui	s9,0x4
     556:	3402                	fld	fs0,32(sp)
     558:	0002                	c.slli64	zero
     55a:	7700                	ld	s0,40(a4)
     55c:	f909                	bnez	a0,46e <BASE_ADDR-0x801ffb92>
     55e:	0000                	unimp
     560:	0200                	addi	s0,sp,256
     562:	6891                	lui	a7,0x4
     564:	1418                	addi	a4,sp,544
     566:	2009                	0x2009
     568:	e000                	sd	s0,0(s0)
     56a:	ffff                	0xffff
     56c:	94ff                	0x94ff
     56e:	0000                	unimp
     570:	0000                	unimp
     572:	0000                	unimp
     574:	6300                	ld	s0,0(a4)
     576:	0002                	c.slli64	zero
     578:	0500                	addi	s0,sp,640
     57a:	0069                	c.nop	26
     57c:	0d78                	addi	a4,sp,668
     57e:	00f9                	addi	ra,ra,30
     580:	0000                	unimp
     582:	9102                	jalr	sp
     584:	0064                	addi	s1,sp,12
     586:	200a340f          	0x200a340f
     58a:	e000                	sd	s0,0(s0)
     58c:	ffff                	0xffff
     58e:	d4ff                	0xd4ff
     590:	0000                	unimp
     592:	0000                	unimp
     594:	0000                	unimp
     596:	0500                	addi	s0,sp,640
     598:	0069                	c.nop	26
     59a:	1188                	addi	a0,sp,224
     59c:	00f9                	addi	ra,ra,30
     59e:	0000                	unimp
     5a0:	9102                	jalr	sp
     5a2:	0060                	addi	s0,sp,12
     5a4:	1900                	addi	s0,sp,176
     5a6:	0000022b          	0x22b
     5aa:	3d01                	addiw	s10,s10,-32
     5ac:	8006                	c.mv	zero,ra
     5ae:	2008                	fld	fa0,0(s0)
     5b0:	e000                	sd	s0,0(s0)
     5b2:	ffff                	0xffff
     5b4:	7cff                	0x7cff
     5b6:	0000                	unimp
     5b8:	0000                	unimp
     5ba:	0000                	unimp
     5bc:	0100                	addi	s0,sp,128
     5be:	0e9c                	addi	a5,sp,848
     5c0:	0246                	slli	tp,tp,0x11
     5c2:	0000                	unimp
     5c4:	20081833          	0x20081833
     5c8:	e000                	sd	s0,0(s0)
     5ca:	ffff                	0xffff
     5cc:	68ff                	0x68ff
     5ce:	0000                	unimp
     5d0:	0000                	unimp
     5d2:	0000                	unimp
     5d4:	0100                	addi	s0,sp,128
     5d6:	d69c                	sw	a5,40(a3)
     5d8:	0002                	c.slli64	zero
     5da:	1a00                	addi	s0,sp,304
     5dc:	000000b3          	add	ra,zero,zero
     5e0:	3301                	addiw	t1,t1,-32
     5e2:	1424                	addi	s1,sp,552
     5e4:	0001                	nop
     5e6:	0200                	addi	s0,sp,256
     5e8:	5891                	li	a7,-28
     5ea:	5002                	0x5002
     5ec:	0002                	c.slli64	zero
     5ee:	3500                	fld	fs0,40(a0)
     5f0:	1419                	addi	s0,s0,-26
     5f2:	0001                	nop
     5f4:	0200                	addi	s0,sp,256
     5f6:	6891                	lui	a7,0x4
     5f8:	1b00                	addi	s0,sp,432
     5fa:	01a2                	slli	gp,gp,0x8
     5fc:	0000                	unimp
     5fe:	0f01                	addi	t5,t5,0
     600:	2c06                	fld	fs8,64(sp)
     602:	2006                	fld	ft0,64(sp)
     604:	e000                	sd	s0,0(s0)
     606:	ffff                	0xffff
     608:	ecff                	0xecff
     60a:	0001                	nop
     60c:	0000                	unimp
     60e:	0000                	unimp
     610:	0100                	addi	s0,sp,128
     612:	0f9c                	addi	a5,sp,976
     614:	06c8                	addi	a0,sp,836
     616:	0020                	addi	s0,sp,8
     618:	ffe0                	sd	s0,248(a5)
     61a:	ffff                	0xffff
     61c:	012c                	addi	a1,sp,136
     61e:	0000                	unimp
     620:	0000                	unimp
     622:	0000                	unimp
     624:	6905                	lui	s2,0x1
     626:	1e00                	addi	s0,sp,816
     628:	f90d                	bnez	a0,55a <BASE_ADDR-0x801ffaa6>
     62a:	0000                	unimp
     62c:	0200                	addi	s0,sp,256
     62e:	5c91                	li	s9,-28
     630:	0000                	unimp
     632:	6c00                	ld	s0,24(s0)
     634:	0001                	nop
     636:	0500                	addi	s0,sp,640
     638:	0100                	addi	s0,sp,128
     63a:	2708                	fld	fa0,8(a4)
     63c:	0004                	0x4
     63e:	0600                	addi	s0,sp,768
     640:	0025                	c.nop	9
     642:	0000                	unimp
     644:	d81d                	beqz	s0,57a <BASE_ADDR-0x801ffa86>
     646:	0000                	unimp
     648:	0800                	addi	s0,sp,16
     64a:	0000                	unimp
     64c:	ee00                	sd	s0,24(a2)
	...
     656:	0000                	unimp
     658:	6900                	ld	s0,16(a0)
     65a:	0700000b          	0x700000b
     65e:	00b8                	addi	a4,sp,72
     660:	0000                	unimp
     662:	36170403          	lb	s0,865(a4)
     666:	0000                	unimp
     668:	0300                	addi	s0,sp,384
     66a:	00000007          	0x7
     66e:	0800                	addi	s0,sp,16
     670:	000000ef          	jal	ra,670 <BASE_ADDR-0x801ff990>
     674:	0210                	addi	a2,sp,256
     676:	0808                	addi	a0,sp,16
     678:	0060                	addi	s0,sp,12
     67a:	0000                	unimp
     67c:	bf04                	fsd	fs1,56(a4)
     67e:	0000                	unimp
     680:	0900                	addi	s0,sp,144
     682:	0060                	addi	s0,sp,12
     684:	0000                	unimp
     686:	0400                	addi	s0,sp,512
     688:	03da                	slli	t2,t2,0x16
     68a:	0000                	unimp
     68c:	600a                	0x600a
     68e:	0000                	unimp
     690:	0800                	addi	s0,sp,16
     692:	0300                	addi	s0,sp,384
     694:	1205                	addi	tp,tp,-31
     696:	0000                	unimp
     698:	0900                	addi	s0,sp,144
     69a:	0000001b          	sext.w	zero,zero
     69e:	0501                	addi	a0,a0,0
     6a0:	00003c0f          	0x3c0f
     6a4:	bc00                	fsd	fs0,56(s0)
     6a6:	e000200b          	0xe000200b
     6aa:	ffff                	0xffff
     6ac:	78ff                	0x78ff
     6ae:	0000                	unimp
     6b0:	0000                	unimp
     6b2:	0000                	unimp
     6b4:	0100                	addi	s0,sp,128
     6b6:	689c                	ld	a5,16(s1)
     6b8:	0001                	nop
     6ba:	0500                	addi	s0,sp,640
     6bc:	7865                	lui	a6,0xffff9
     6be:	0074                	addi	a3,sp,12
     6c0:	681d                	lui	a6,0x7
     6c2:	0001                	nop
     6c4:	0200                	addi	s0,sp,256
     6c6:	5c91                	li	s9,-28
     6c8:	6605                	lui	a2,0x1
     6ca:	6469                	lui	s0,0x1a
     6cc:	2600                	fld	fs0,8(a2)
     6ce:	0168                	addi	a0,sp,140
     6d0:	0000                	unimp
     6d2:	9102                	jalr	sp
     6d4:	0258                	addi	a4,sp,260
     6d6:	0264                	addi	s1,sp,268
     6d8:	0000                	unimp
     6da:	3205                	addiw	tp,tp,-31
     6dc:	002a                	c.slli	zero,0xa
     6de:	0000                	unimp
     6e0:	9102                	jalr	sp
     6e2:	0250                	addi	a2,sp,260
     6e4:	0269                	addi	tp,tp,26
     6e6:	0000                	unimp
     6e8:	1706                	slli	a4,a4,0x21
     6ea:	002a                	c.slli	zero,0xa
     6ec:	0000                	unimp
     6ee:	9102                	jalr	sp
     6f0:	0248                	addi	a0,sp,260
     6f2:	026e                	slli	tp,tp,0x1b
     6f4:	0000                	unimp
     6f6:	2406                	fld	fs0,64(sp)
     6f8:	002a                	c.slli	zero,0xa
     6fa:	0000                	unimp
     6fc:	9102                	jalr	sp
     6fe:	0240                	addi	s0,sp,260
     700:	00000273          	0x273
     704:	002a1707          	0x2a1707
     708:	0000                	unimp
     70a:	7fb89103          	lh	sp,2043(a7) # 47fb <BASE_ADDR-0x801fb805>
     70e:	7802                	ld	a6,32(sp)
     710:	0002                	c.slli64	zero
     712:	0700                	addi	s0,sp,896
     714:	2a24                	fld	fs1,80(a2)
     716:	0000                	unimp
     718:	0300                	addi	s0,sp,384
     71a:	b091                	j	ffffffffffffff5e <_ebss+0x1fffdf6fbe>
     71c:	027f                	0x27f
     71e:	027d                	addi	tp,tp,31
     720:	0000                	unimp
     722:	1708                	addi	a0,sp,928
     724:	002a                	c.slli	zero,0xa
     726:	0000                	unimp
     728:	7fa89103          	lh	sp,2042(a7)
     72c:	7201                	lui	tp,0xfffe0
     72e:	7465                	lui	s0,0xffff9
     730:	0a00                	addi	s0,sp,272
     732:	3c10                	fld	fa2,56(s0)
     734:	0000                	unimp
     736:	0200                	addi	s0,sp,256
     738:	6091                	lui	ra,0x4
     73a:	6101                	addi	sp,sp,0
     73c:	0030                	addi	a2,sp,8
     73e:	120c                	addi	a1,sp,288
     740:	002a                	c.slli	zero,0xa
     742:	0000                	unimp
     744:	5a01                	li	s4,-32
     746:	6101                	addi	sp,sp,0
     748:	0031                	c.nop	12
     74a:	120d                	addi	tp,tp,-29
     74c:	002a                	c.slli	zero,0xa
     74e:	0000                	unimp
     750:	5b01                	li	s6,-32
     752:	6101                	addi	sp,sp,0
     754:	0032                	c.slli	zero,0xc
     756:	120e                	slli	tp,tp,0x23
     758:	002a                	c.slli	zero,0xa
     75a:	0000                	unimp
     75c:	5c01                	li	s8,-32
     75e:	6101                	addi	sp,sp,0
     760:	120f0033          	0x120f0033
     764:	002a                	c.slli	zero,0xa
     766:	0000                	unimp
     768:	5d01                	li	s10,-32
     76a:	6101                	addi	sp,sp,0
     76c:	0034                	addi	a3,sp,8
     76e:	1210                	addi	a2,sp,288
     770:	002a                	c.slli	zero,0xa
     772:	0000                	unimp
     774:	5e01                	li	t3,-32
     776:	6101                	addi	sp,sp,0
     778:	0035                	c.nop	13
     77a:	1211                	addi	tp,tp,-28
     77c:	002a                	c.slli	zero,0xa
     77e:	0000                	unimp
     780:	5f01                	li	t5,-32
     782:	6101                	addi	sp,sp,0
     784:	0036                	c.slli	zero,0xd
     786:	1212                	slli	tp,tp,0x24
     788:	002a                	c.slli	zero,0xa
     78a:	0000                	unimp
     78c:	6001                	0x6001
     78e:	6101                	addi	sp,sp,0
     790:	12130037          	lui	zero,0x12130
     794:	002a                	c.slli	zero,0xa
     796:	0000                	unimp
     798:	6101                	addi	sp,sp,0
     79a:	0a00                	addi	s0,sp,272
     79c:	0504                	addi	s1,sp,640
     79e:	6e69                	lui	t3,0x1a
     7a0:	0074                	addi	a3,sp,12
     7a2:	b600                	fsd	fs0,40(a2)
     7a4:	0000                	unimp
     7a6:	0500                	addi	s0,sp,640
     7a8:	0100                	addi	s0,sp,128
     7aa:	d908                	sw	a0,48(a0)
     7ac:	0004                	0x4
     7ae:	0500                	addi	s0,sp,640
     7b0:	0025                	c.nop	9
     7b2:	0000                	unimp
     7b4:	de1d                	beqz	a2,6f2 <BASE_ADDR-0x801ff90e>
     7b6:	0000                	unimp
     7b8:	0800                	addi	s0,sp,16
     7ba:	0000                	unimp
     7bc:	0c00                	addi	s0,sp,528
     7be:	0001                	nop
	...
     7c8:	0300                	addi	s0,sp,384
     7ca:	000c                	0xc
     7cc:	0100                	addi	s0,sp,128
     7ce:	0508                	addi	a0,sp,640
     7d0:	0012                	c.slli	zero,0x4
     7d2:	0000                	unimp
     7d4:	0801                	addi	a6,a6,0
     7d6:	00000007          	0x7
     7da:	0600                	addi	s0,sp,768
     7dc:	0504                	addi	s1,sp,640
     7de:	6e69                	lui	t3,0x1a
     7e0:	0074                	addi	a3,sp,12
     7e2:	00022b03          	lw	s6,0(tp) # fffffffffffe0000 <_ebss+0x1fffdd7060>
     7e6:	0200                	addi	s0,sp,256
     7e8:	062e                	slli	a2,a2,0xb
     7ea:	004d                	c.nop	19
     7ec:	0000                	unimp
     7ee:	0002                	c.slli64	zero
     7f0:	0000da03          	lhu	s4,0(ra) # 4000 <BASE_ADDR-0x801fc000>
     7f4:	0100                	addi	s0,sp,128
     7f6:	005b0d03          	lb	s10,5(s6) # fffffffffffe1005 <_ebss+0x1fffdd8065>
     7fa:	0000                	unimp
     7fc:	0002                	c.slli64	zero
     7fe:	00017b07          	0x17b07
     802:	0300                	addi	s0,sp,384
     804:	0505                	addi	a0,a0,1
     806:	0038                	addi	a4,sp,8
     808:	0000                	unimp
     80a:	0072                	c.slli	zero,0x1c
     80c:	0000                	unimp
     80e:	7208                	ld	a0,32(a2)
     810:	0000                	unimp
     812:	0200                	addi	s0,sp,256
     814:	0900                	addi	s0,sp,144
     816:	7f08                	ld	a0,56(a4)
     818:	0000                	unimp
     81a:	0100                	addi	s0,sp,128
     81c:	0801                	addi	a6,a6,0
     81e:	047f                	0x47f
     820:	0000                	unimp
     822:	780a                	ld	a6,160(sp)
     824:	0000                	unimp
     826:	0b00                	addi	s0,sp,400
     828:	028e                	slli	t0,t0,0x3
     82a:	0000                	unimp
     82c:	0501                	addi	a0,a0,0
     82e:	3406                	fld	fs0,96(sp)
     830:	200c                	fld	fa1,0(s0)
     832:	e000                	sd	s0,0(s0)
     834:	ffff                	0xffff
     836:	70ff                	0x70ff
     838:	0000                	unimp
     83a:	0000                	unimp
     83c:	0000                	unimp
     83e:	0100                	addi	s0,sp,128
     840:	049c                	addi	a5,sp,576
     842:	0282                	c.slli64	t0
     844:	0000                	unimp
     846:	3121                	addiw	sp,sp,-24
     848:	0000                	unimp
     84a:	0200                	addi	s0,sp,256
     84c:	6891                	lui	a7,0x4
     84e:	8904                	0x8904
     850:	0002                	c.slli64	zero
     852:	3700                	fld	fs0,40(a4)
     854:	0031                	c.nop	12
     856:	0000                	unimp
     858:	9102                	jalr	sp
     85a:	0060                	addi	s0,sp,12
     85c:	9b00                	0x9b00
     85e:	0005                	c.nop	1
     860:	0500                	addi	s0,sp,640
     862:	0100                	addi	s0,sp,128
     864:	7508                	ld	a0,40(a0)
     866:	0005                	c.nop	1
     868:	1200                	addi	s0,sp,288
     86a:	0025                	c.nop	9
     86c:	0000                	unimp
     86e:	e51d                	bnez	a0,89c <BASE_ADDR-0x801ff764>
     870:	0000                	unimp
     872:	0800                	addi	s0,sp,16
     874:	0000                	unimp
     876:	2a00                	fld	fs0,16(a2)
     878:	0001                	nop
	...
     882:	a300                	fsd	fs0,0(a4)
     884:	000c                	0xc
     886:	1300                	addi	s0,sp,416
     888:	00b8                	addi	a4,sp,72
     88a:	0000                	unimp
     88c:	0404                	addi	s1,sp,512
     88e:	00003617          	auipc	a2,0x3
     892:	0700                	addi	s0,sp,896
     894:	0708                	addi	a0,sp,896
     896:	0000                	unimp
     898:	0000                	unimp
     89a:	12050807          	0x12050807
     89e:	0000                	unimp
     8a0:	1400                	addi	s0,sp,544
     8a2:	0504                	addi	s1,sp,640
     8a4:	6e69                	lui	t3,0x1a
     8a6:	0074                	addi	a3,sp,12
     8a8:	b605                	j	3c8 <BASE_ADDR-0x801ffc38>
     8aa:	0002                	c.slli64	zero
     8ac:	0900                	addi	s0,sp,144
     8ae:	002a                	c.slli	zero,0xa
     8b0:	0000                	unimp
     8b2:	a605                	j	bd2 <BASE_ADDR-0x801ff42e>
     8b4:	0a000003          	lb	zero,160(zero) # a0 <BASE_ADDR-0x801fff60>
     8b8:	002a                	c.slli	zero,0xa
     8ba:	0000                	unimp
     8bc:	6d05                	lui	s10,0x1
     8be:	0b000003          	lb	zero,176(zero) # b0 <BASE_ADDR-0x801fff50>
     8c2:	002a                	c.slli	zero,0xa
     8c4:	0000                	unimp
     8c6:	2105                	addiw	sp,sp,1
     8c8:	0c000003          	lb	zero,192(zero) # c0 <BASE_ADDR-0x801fff40>
     8cc:	002a                	c.slli	zero,0xa
     8ce:	0000                	unimp
     8d0:	9b05                	andi	a4,a4,-31
     8d2:	0002                	c.slli64	zero
     8d4:	0d00                	addi	s0,sp,656
     8d6:	002a                	c.slli	zero,0xa
     8d8:	0000                	unimp
     8da:	8805                	andi	s0,s0,1
     8dc:	0e000003          	lb	zero,224(zero) # e0 <BASE_ADDR-0x801fff20>
     8e0:	002a                	c.slli	zero,0xa
     8e2:	0000                	unimp
     8e4:	a205                	j	a04 <BASE_ADDR-0x801ff5fc>
     8e6:	0002                	c.slli64	zero
     8e8:	0f00                	addi	s0,sp,912
     8ea:	002a                	c.slli	zero,0xa
     8ec:	0000                	unimp
     8ee:	b005                	j	10e <BASE_ADDR-0x801ffef2>
     8f0:	0002                	c.slli64	zero
     8f2:	1000                	addi	s0,sp,32
     8f4:	002a                	c.slli	zero,0xa
     8f6:	0000                	unimp
     8f8:	f309                	bnez	a4,7fa <BASE_ADDR-0x801ff806>
     8fa:	0002                	c.slli64	zero
     8fc:	0800                	addi	s0,sp,16
     8fe:	2614                	fld	fa3,8(a2)
     900:	0001                	nop
     902:	0200                	addi	s0,sp,256
     904:	0056                	c.slli	zero,0x15
     906:	1415                	addi	s0,s0,-27
     908:	0126                	slli	sp,sp,0x9
     90a:	0000                	unimp
     90c:	0001                	nop
     90e:	5202                	lw	tp,32(sp)
     910:	1600                	addi	s0,sp,800
     912:	2614                	fld	fa3,8(a2)
     914:	0001                	nop
     916:	0100                	addi	s0,sp,128
     918:	0201                	addi	tp,tp,0
     91a:	14170057          	0x14170057
     91e:	0126                	slli	sp,sp,0x9
     920:	0000                	unimp
     922:	0201                	addi	tp,tp,0
     924:	5802                	lw	a6,32(sp)
     926:	1800                	addi	s0,sp,48
     928:	2614                	fld	fa3,8(a2)
     92a:	0001                	nop
     92c:	0100                	addi	s0,sp,128
     92e:	00550203          	lb	tp,5(a0) # 1b005 <BASE_ADDR-0x801e4ffb>
     932:	1419                	addi	s0,s0,-26
     934:	0126                	slli	sp,sp,0x9
     936:	0000                	unimp
     938:	0401                	addi	s0,s0,0
     93a:	4702                	lw	a4,0(sp)
     93c:	1a00                	addi	s0,sp,304
     93e:	2614                	fld	fa3,8(a2)
     940:	0001                	nop
     942:	0100                	addi	s0,sp,128
     944:	0205                	addi	tp,tp,1
     946:	0041                	c.nop	16
     948:	0126141b          	slliw	s0,a2,0x12
     94c:	0000                	unimp
     94e:	0601                	addi	a2,a2,0
     950:	4402                	lw	s0,0(sp)
     952:	1c00                	addi	s0,sp,560
     954:	2614                	fld	fa3,8(a2)
     956:	0001                	nop
     958:	0100                	addi	s0,sp,128
     95a:	53520207          	0x53520207
     95e:	141d0057          	0x141d0057
     962:	0126                	slli	sp,sp,0x9
     964:	0000                	unimp
     966:	0802                	c.slli64	a6
     968:	7002                	0x7002
     96a:	6e70                	ld	a2,216(a2)
     96c:	1e00                	addi	s0,sp,816
     96e:	00003613          	sltiu	a2,zero,0
     972:	1a00                	addi	s0,sp,304
     974:	030a                	slli	t1,t1,0x2
     976:	000002d3          	fadd.s	ft5,ft0,ft0,rne
     97a:	121f 012d 0000      	0x12d121f
     980:	241c                	fld	fa5,8(s0)
     982:	0700                	addi	s0,sp,896
     984:	0702                	c.slli64	a4
     986:	030e                	slli	t1,t1,0x3
     988:	0000                	unimp
     98a:	05070407          	0x5070407
     98e:	0000                	unimp
     990:	1500                	addi	s0,sp,672
     992:	002a                	c.slli	zero,0xa
     994:	0000                	unimp
     996:	0145                	addi	sp,sp,17
     998:	0000                	unimp
     99a:	3616                	fld	fa2,352(sp)
     99c:	0000                	unimp
     99e:	ff00                	sd	s0,56(a4)
     9a0:	0001                	nop
     9a2:	bd0e                	fsd	ft3,184(sp)
     9a4:	0002                	c.slli64	zero
     9a6:	2300                	fld	fs0,0(a4)
     9a8:	3408                	fld	fa0,40(s0)
     9aa:	0001                	nop
     9ac:	0900                	addi	s0,sp,144
     9ae:	20600003          	lb	zero,518(zero) # 206 <BASE_ADDR-0x801ffdfa>
     9b2:	e000                	sd	s0,0(s0)
     9b4:	ffff                	0xffff
     9b6:	09ff                	0x9ff
     9b8:	035f 0000 2508      	0x25080000035f
     9be:	018d                	addi	gp,gp,3
     9c0:	0000                	unimp
     9c2:	0003bf03          	ld	t5,0(t2)
     9c6:	2700                	fld	fs0,8(a4)
     9c8:	2a0c                	fld	fa1,16(a2)
     9ca:	0000                	unimp
     9cc:	1e00                	addi	s0,sp,816
     9ce:	0200                	addi	s0,sp,256
     9d0:	7076                	0x7076
     9d2:	006e                	c.slli	zero,0x1b
     9d4:	0c28                	addi	a0,sp,536
     9d6:	002a                	c.slli	zero,0xa
     9d8:	0000                	unimp
     9da:	1e09                	addi	t3,t3,-30
     9dc:	00035603          	lhu	a2,0(t1) # fffffffffffe5000 <_ebss+0x1fffddc060>
     9e0:	2900                	fld	fs0,16(a0)
     9e2:	2a0c                	fld	fa1,16(a2)
     9e4:	0000                	unimp
     9e6:	1900                	addi	s0,sp,176
     9e8:	a8090027          	0xa8090027
     9ec:	0002                	c.slli64	zero
     9ee:	0c00                	addi	s0,sp,528
     9f0:	da34                	sw	a3,112(a2)
     9f2:	0001                	nop
     9f4:	0300                	addi	s0,sp,384
     9f6:	000003bf 012d1236 	0x12d1236000003bf
     9fe:	0000                	unimp
     a00:	000c                	0xc
     a02:	00039703          	lh	a4,0(t2)
     a06:	3700                	fld	fs0,40(a4)
     a08:	2614                	fld	fa3,8(a2)
     a0a:	0001                	nop
     a0c:	0900                	addi	s0,sp,144
     a0e:	0310                	addi	a2,sp,384
     a10:	039c                	addi	a5,sp,448
     a12:	0000                	unimp
     a14:	1438                	addi	a4,sp,552
     a16:	0126                	slli	sp,sp,0x9
     a18:	0000                	unimp
     a1a:	2009                	0x2009
     a1c:	0003a103          	lw	sp,0(t2)
     a20:	3900                	fld	fs0,48(a0)
     a22:	2614                	fld	fa3,8(a2)
     a24:	0001                	nop
     a26:	0900                	addi	s0,sp,144
     a28:	0330                	addi	a2,sp,392
     a2a:	0376                	slli	t1,t1,0x1d
     a2c:	0000                	unimp
     a2e:	123a                	slli	tp,tp,0x2e
     a30:	012d                	addi	sp,sp,11
     a32:	0000                	unimp
     a34:	4019                	c.li	zero,6
     a36:	0900                	addi	s0,sp,144
     a38:	0000038f          	0x38f
     a3c:	3d08                	fld	fa0,56(a0)
     a3e:	020d                	addi	tp,tp,3
     a40:	0000                	unimp
     a42:	0003bf03          	ld	t5,0(t2)
     a46:	3f00                	fld	fs0,56(a4)
     a48:	2d12                	fld	fs10,256(sp)
     a4a:	0001                	nop
     a4c:	0c00                	addi	s0,sp,528
     a4e:	0200                	addi	s0,sp,256
     a50:	7070                	ld	a2,224(s0)
     a52:	006e                	c.slli	zero,0x1b
     a54:	1340                	addi	s0,sp,420
     a56:	0036                	c.slli	zero,0xd
     a58:	0000                	unimp
     a5a:	0c2c                	addi	a1,sp,536
     a5c:	00035603          	lhu	a2,0(t1)
     a60:	4100                	lw	s0,0(a0)
     a62:	2614                	fld	fa3,8(a2)
     a64:	0001                	nop
     a66:	0800                	addi	s0,sp,16
     a68:	0038                	addi	a4,sp,8
     a6a:	e00e                	sd	gp,0(sp)
     a6c:	75000003          	lb	zero,1872(zero) # 750 <BASE_ADDR-0x801ff8b0>
     a70:	3409                	addiw	s0,s0,-30
     a72:	0001                	nop
     a74:	0900                	addi	s0,sp,144
     a76:	20700003          	lb	zero,519(zero) # 207 <BASE_ADDR-0x801ffdf9>
     a7a:	e000                	sd	s0,0(s0)
     a7c:	ffff                	0xffff
     a7e:	17ff                	0x17ff
     a80:	0000013f 2a080905 	0x2a0809050000013f
     a88:	0000                	unimp
     a8a:	3400                	fld	fs0,40(s0)
     a8c:	0002                	c.slli64	zero
     a8e:	0f00                	addi	s0,sp,912
     a90:	1000                	addi	s0,sp,32
     a92:	0000017b          	0x17b
     a96:	0502                	c.slli64	a0
     a98:	0044                	addi	s1,sp,4
     a9a:	0000                	unimp
     a9c:	024a                	slli	tp,tp,0x12
     a9e:	0000                	unimp
     aa0:	4a0a                	lw	s4,128(sp)
     aa2:	0002                	c.slli64	zero
     aa4:	0f00                	addi	s0,sp,912
     aa6:	0b00                	addi	s0,sp,400
     aa8:	0256                	slli	tp,tp,0x15
     aaa:	0000                	unimp
     aac:	7f080107          	0x7f080107
     ab0:	0004                	0x4
     ab2:	1800                	addi	s0,sp,48
     ab4:	0000024f          	fnmadd.s	ft4,ft0,ft0,ft0,rne
     ab8:	8810                	0x8810
     aba:	0001                	nop
     abc:	0300                	addi	s0,sp,384
     abe:	00027a07          	0x27a07
     ac2:	7a00                	ld	s0,48(a2)
     ac4:	0002                	c.slli64	zero
     ac6:	0a00                	addi	s0,sp,272
     ac8:	027a                	slli	tp,tp,0x1e
     aca:	0000                	unimp
     acc:	440a                	lw	s0,128(sp)
     ace:	0000                	unimp
     ad0:	0a00                	addi	s0,sp,272
     ad2:	002a                	c.slli	zero,0xa
     ad4:	0000                	unimp
     ad6:	1900                	addi	s0,sp,176
     ad8:	0c08                	addi	a0,sp,528
     ada:	03c6                	slli	t2,t2,0x11
     adc:	0000                	unimp
     ade:	2012e4bf ffffe000 	0xffffe0002012e4bf
     ae6:	dcff                	0xdcff
     ae8:	0000                	unimp
     aea:	0000                	unimp
     aec:	0000                	unimp
     aee:	0100                	addi	s0,sp,128
     af0:	1b9c                	addi	a5,sp,496
     af2:	06000003          	lb	zero,96(zero) # 60 <BASE_ADDR-0x801fffa0>
     af6:	000002c3          	fmadd.s	ft5,ft0,ft0,ft0,rne
     afa:	031b1dbf 91020000 	0x91020000031b1dbf
     b02:	0848                	addi	a0,sp,20
     b04:	6176                	ld	sp,344(sp)
     b06:	bf00                	fsd	fs0,56(a4)
     b08:	00002a2b          	0x2a2b
     b0c:	0200                	addi	s0,sp,256
     b0e:	4091                	li	ra,4
     b10:	7008                	ld	a0,32(s0)
     b12:	0061                	c.nop	24
     b14:	002a36bf 91030000 	0x91030000002a36bf
     b1c:	7fb8                	ld	a4,120(a5)
     b1e:	7308                	ld	a0,32(a4)
     b20:	007a                	c.slli	zero,0x1e
     b22:	002a41bf 91030000 	0x91030000002a41bf
     b2a:	7fb0                	ld	a2,120(a5)
     b2c:	0906                	slli	s2,s2,0x1
     b2e:	bf000003          	lb	zero,-1040(zero) # fffffffffffffbf0 <_ebss+0x1fffdf6c50>
     b32:	4449                	li	s0,18
     b34:	0000                	unimp
     b36:	0300                	addi	s0,sp,384
     b38:	ac91                	j	d8c <BASE_ADDR-0x801ff274>
     b3a:	017f                	0x17f
     b3c:	03b6                	slli	t2,t2,0xd
     b3e:	0000                	unimp
     b40:	0cca                	slli	s9,s9,0x12
     b42:	002a                	c.slli	zero,0xa
     b44:	0000                	unimp
     b46:	9102                	jalr	sp
     b48:	0d68                	addi	a0,sp,668
     b4a:	1324                	addi	s1,sp,424
     b4c:	0020                	addi	s0,sp,8
     b4e:	ffe0                	sd	s0,248(a5)
     b50:	ffff                	0xffff
     b52:	0058                	addi	a4,sp,4
     b54:	0000                	unimp
     b56:	0000                	unimp
     b58:	0000                	unimp
     b5a:	dc01                	beqz	s0,a72 <BASE_ADDR-0x801ff58e>
     b5c:	0002                	c.slli64	zero
     b5e:	cc00                	sw	s0,24(s0)
     b60:	1b11                	addi	s6,s6,-28
     b62:	02000003          	lb	zero,32(zero) # 20 <BASE_ADDR-0x801fffe0>
     b66:	6091                	lui	ra,0x4
     b68:	7004                	ld	s1,32(s0)
     b6a:	6e70                	ld	a2,216(a2)
     b6c:	cd00                	sw	s0,24(a0)
     b6e:	2a10                	fld	fa2,16(a2)
     b70:	0000                	unimp
     b72:	0200                	addi	s0,sp,256
     b74:	5891                	li	a7,-28
     b76:	0000                	unimp
     b78:	00002a0b          	0x2a0b
     b7c:	1100                	addi	s0,sp,160
     b7e:	00000343          	fmadd.s	ft6,ft0,ft0,ft0,rne
     b82:	1bb1                	addi	s7,s7,-20
     b84:	0c000003          	lb	zero,192(zero) # c0 <BASE_ADDR-0x801fff40>
     b88:	2012                	fld	ft0,256(sp)
     b8a:	e000                	sd	s0,0(s0)
     b8c:	ffff                	0xffff
     b8e:	d8ff                	0xd8ff
     b90:	0000                	unimp
     b92:	0000                	unimp
     b94:	0000                	unimp
     b96:	0100                	addi	s0,sp,128
     b98:	939c                	0x939c
     b9a:	06000003          	lb	zero,96(zero) # 60 <BASE_ADDR-0x801fffa0>
     b9e:	000002c3          	fmadd.s	ft5,ft0,ft0,ft0,rne
     ba2:	24b1                	addiw	s1,s1,12
     ba4:	0000031b          	sext.w	t1,zero
     ba8:	9102                	jalr	sp
     baa:	0848                	addi	a0,sp,20
     bac:	6176                	ld	sp,344(sp)
     bae:	b100                	fsd	fs0,32(a0)
     bb0:	2a32                	fld	fs4,264(sp)
     bb2:	0000                	unimp
     bb4:	0200                	addi	s0,sp,256
     bb6:	4091                	li	ra,4
     bb8:	0906                	slli	s2,s2,0x1
     bba:	b1000003          	lb	zero,-1264(zero) # fffffffffffffb10 <_ebss+0x1fffdf6b70>
     bbe:	443a                	lw	s0,140(sp)
     bc0:	0000                	unimp
     bc2:	0300                	addi	s0,sp,384
     bc4:	bc91                	j	618 <BASE_ADDR-0x801ff9e8>
     bc6:	017f                	0x17f
     bc8:	03fe                	slli	t2,t2,0x1f
     bca:	0000                	unimp
     bcc:	0db2                	slli	s11,s11,0xc
     bce:	0000031b          	sext.w	t1,zero
     bd2:	9102                	jalr	sp
     bd4:	1a68                	addi	a0,sp,316
     bd6:	02dc                	addi	a5,sp,324
     bd8:	0000                	unimp
     bda:	b401                	j	5da <BASE_ADDR-0x801ffa26>
     bdc:	1b0d                	addi	s6,s6,-29
     bde:	04000003          	lb	zero,64(zero) # 40 <BASE_ADDR-0x801fffc0>
     be2:	6176                	ld	sp,344(sp)
     be4:	005f 14b5 018d      	0x18d14b5005f
     bea:	0000                	unimp
     bec:	9102                	jalr	sp
     bee:	0058                	addi	a4,sp,4
     bf0:	ef11                	bnez	a4,c0c <BASE_ADDR-0x801ff3f4>
     bf2:	9f000003          	lb	zero,-1552(zero) # fffffffffffff9f0 <_ebss+0x1fffdf6a50>
     bf6:	0000031b          	sext.w	t1,zero
     bfa:	1154                	addi	a3,sp,164
     bfc:	0020                	addi	s0,sp,8
     bfe:	ffe0                	sd	s0,248(a5)
     c00:	ffff                	0xffff
     c02:	00b8                	addi	a4,sp,72
     c04:	0000                	unimp
     c06:	0000                	unimp
     c08:	0000                	unimp
     c0a:	9c01                	subw	s0,s0,s0
     c0c:	0431                	addi	s0,s0,12
     c0e:	0000                	unimp
     c10:	fe06                	sd	ra,312(sp)
     c12:	9f000003          	lb	zero,-1552(zero) # fffffffffffff9f0 <_ebss+0x1fffdf6a50>
     c16:	1b20                	addi	s0,sp,440
     c18:	02000003          	lb	zero,32(zero) # 20 <BASE_ADDR-0x801fffe0>
     c1c:	4891                	li	a7,4
     c1e:	7608                	ld	a0,40(a2)
     c20:	6e70                	ld	a2,216(a2)
     c22:	9f00                	0x9f00
     c24:	00002a2f          	amoadd.w	s4,zero,(zero)
     c28:	0200                	addi	s0,sp,256
     c2a:	4091                	li	ra,4
     c2c:	0906                	slli	s2,s2,0x1
     c2e:	9f000003          	lb	zero,-1552(zero) # fffffffffffff9f0 <_ebss+0x1fffdf6a50>
     c32:	4438                	lw	a4,72(s0)
     c34:	0000                	unimp
     c36:	0300                	addi	s0,sp,384
     c38:	bc91                	j	68c <BASE_ADDR-0x801ff974>
     c3a:	017f                	0x17f
     c3c:	02dc                	addi	a5,sp,324
     c3e:	0000                	unimp
     c40:	0da0                	addi	s0,sp,728
     c42:	0000031b          	sext.w	t1,zero
     c46:	9102                	jalr	sp
     c48:	1b68                	addi	a0,sp,444
     c4a:	1198                	addi	a4,sp,224
     c4c:	0020                	addi	s0,sp,8
     c4e:	ffe0                	sd	s0,248(a5)
     c50:	ffff                	0xffff
     c52:	0024                	addi	s1,sp,8
     c54:	0000                	unimp
     c56:	0000                	unimp
     c58:	0000                	unimp
     c5a:	0410                	addi	a2,sp,512
     c5c:	0000                	unimp
     c5e:	e801                	bnez	s0,c6e <BASE_ADDR-0x801ff392>
     c60:	0002                	c.slli64	zero
     c62:	a500                	fsd	fs0,8(a0)
     c64:	2a10                	fld	fa2,16(a2)
     c66:	0000                	unimp
     c68:	0200                	addi	s0,sp,256
     c6a:	5891                	li	a7,-28
     c6c:	0d00                	addi	s0,sp,656
     c6e:	11c0                	addi	s0,sp,228
     c70:	0020                	addi	s0,sp,8
     c72:	ffe0                	sd	s0,248(a5)
     c74:	ffff                	0xffff
     c76:	0034                	addi	a3,sp,8
     c78:	0000                	unimp
     c7a:	0000                	unimp
     c7c:	0000                	unimp
     c7e:	7004                	ld	s1,32(s0)
     c80:	6e70                	ld	a2,216(a2)
     c82:	aa00                	fsd	fs0,16(a2)
     c84:	2a10                	fld	fa2,16(a2)
     c86:	0000                	unimp
     c88:	0200                	addi	s0,sp,256
     c8a:	6091                	lui	ra,0x4
     c8c:	0000                	unimp
     c8e:	2a0c                	fld	fa1,16(a2)
     c90:	78000003          	lb	zero,1920(zero) # 780 <BASE_ADDR-0x801ff880>
     c94:	0fb0                	addi	a2,sp,984
     c96:	0020                	addi	s0,sp,8
     c98:	ffe0                	sd	s0,248(a5)
     c9a:	ffff                	0xffff
     c9c:	01a4                	addi	s1,sp,200
     c9e:	0000                	unimp
     ca0:	0000                	unimp
     ca2:	0000                	unimp
     ca4:	9c01                	subw	s0,s0,s0
     ca6:	04f0                	addi	a2,sp,588
     ca8:	0000                	unimp
     caa:	b701                	j	baa <BASE_ADDR-0x801ff456>
     cac:	0002                	c.slli64	zero
     cae:	7e00                	ld	s0,56(a2)
     cb0:	2a0c                	fld	fa1,16(a2)
     cb2:	0000                	unimp
     cb4:	0200                	addi	s0,sp,256
     cb6:	6891                	lui	a7,0x4
     cb8:	a701                	j	13b8 <BASE_ADDR-0x801fec48>
     cba:	7f000003          	lb	zero,2032(zero) # 7f0 <BASE_ADDR-0x801ff810>
     cbe:	2a0c                	fld	fa1,16(a2)
     cc0:	0000                	unimp
     cc2:	0200                	addi	s0,sp,256
     cc4:	6091                	lui	ra,0x4
     cc6:	6e01                	0x6e01
     cc8:	80000003          	lb	zero,-2048(zero) # fffffffffffff800 <_ebss+0x1fffdf6860>
     ccc:	2a0c                	fld	fa1,16(a2)
     cce:	0000                	unimp
     cd0:	0200                	addi	s0,sp,256
     cd2:	5891                	li	a7,-28
     cd4:	2201                	sext.w	tp,tp
     cd6:	81000003          	lb	zero,-2032(zero) # fffffffffffff810 <_ebss+0x1fffdf6870>
     cda:	2a0c                	fld	fa1,16(a2)
     cdc:	0000                	unimp
     cde:	0200                	addi	s0,sp,256
     ce0:	5091                	li	ra,-28
     ce2:	9c01                	subw	s0,s0,s0
     ce4:	0002                	c.slli64	zero
     ce6:	8200                	0x8200
     ce8:	2a0c                	fld	fa1,16(a2)
     cea:	0000                	unimp
     cec:	0200                	addi	s0,sp,256
     cee:	4891                	li	a7,4
     cf0:	8901                	andi	a0,a0,0
     cf2:	83000003          	lb	zero,-2000(zero) # fffffffffffff830 <_ebss+0x1fffdf6890>
     cf6:	2a0c                	fld	fa1,16(a2)
     cf8:	0000                	unimp
     cfa:	0200                	addi	s0,sp,256
     cfc:	4091                	li	ra,4
     cfe:	a301                	j	11fe <BASE_ADDR-0x801fee02>
     d00:	0002                	c.slli64	zero
     d02:	8400                	0x8400
     d04:	2a0c                	fld	fa1,16(a2)
     d06:	0000                	unimp
     d08:	0300                	addi	s0,sp,384
     d0a:	b891                	j	55e <BASE_ADDR-0x801ffaa2>
     d0c:	017f                	0x17f
     d0e:	02b1                	addi	t0,t0,12
     d10:	0000                	unimp
     d12:	0c85                	addi	s9,s9,1
     d14:	002a                	c.slli	zero,0xa
     d16:	0000                	unimp
     d18:	7fb09103          	lh	sp,2043(ra) # 47fb <BASE_ADDR-0x801fb805>
     d1c:	d501                	beqz	a0,c24 <BASE_ADDR-0x801ff3dc>
     d1e:	92000003          	lb	zero,-1760(zero) # fffffffffffff920 <_ebss+0x1fffdf6980>
     d22:	2a0c                	fld	fa1,16(a2)
     d24:	0000                	unimp
     d26:	0300                	addi	s0,sp,384
     d28:	a891                	j	d7c <BASE_ADDR-0x801ff284>
     d2a:	0d7f                	0xd7f
     d2c:	112c                	addi	a1,sp,168
     d2e:	0020                	addi	s0,sp,8
     d30:	ffe0                	sd	s0,248(a5)
     d32:	ffff                	0xffff
     d34:	0010                	0x10
     d36:	0000                	unimp
     d38:	0000                	unimp
     d3a:	0000                	unimp
     d3c:	5f04                	lw	s1,56(a4)
     d3e:	765f 9300 3605      	0x36059300765f
     d44:	0000                	unimp
     d46:	0300                	addi	s0,sp,384
     d48:	a091                	j	d8c <BASE_ADDR-0x801ff274>
     d4a:	007f                	0x7f
     d4c:	0c00                	addi	s0,sp,528
     d4e:	03ad                	addi	t2,t2,11
     d50:	0000                	unimp
     d52:	a444                	fsd	fs1,136(s0)
     d54:	200c                	fld	fa1,0(s0)
     d56:	e000                	sd	s0,0(s0)
     d58:	ffff                	0xffff
     d5a:	0cff                	0xcff
     d5c:	00000003          	lb	zero,0(zero) # 0 <BASE_ADDR-0x80200000>
     d60:	0000                	unimp
     d62:	0100                	addi	s0,sp,128
     d64:	999c                	0x999c
     d66:	0005                	c.nop	1
     d68:	0400                	addi	s0,sp,512
     d6a:	6170                	ld	a2,192(a0)
     d6c:	4c00                	lw	s0,24(s0)
     d6e:	da14                	sw	a3,48(a2)
     d70:	0001                	nop
     d72:	0200                	addi	s0,sp,256
     d74:	5091                	li	ra,-28
     d76:	7604                	ld	s1,40(a2)
     d78:	0061                	c.nop	24
     d7a:	134d                	addi	t1,t1,-13
     d7c:	015a                	slli	sp,sp,0x16
     d7e:	0000                	unimp
     d80:	9102                	jalr	sp
     d82:	0448                	addi	a0,sp,516
     d84:	0069                	c.nop	26
     d86:	0c4e                	slli	s8,s8,0x13
     d88:	002a                	c.slli	zero,0xa
     d8a:	0000                	unimp
     d8c:	9102                	jalr	sp
     d8e:	0140                	addi	s0,sp,132
     d90:	037f                	0x37f
     d92:	0000                	unimp
     d94:	0952                	slli	s2,s2,0x14
     d96:	0044                	addi	s1,sp,4
     d98:	0000                	unimp
     d9a:	9102                	jalr	sp
     d9c:	016c                	addi	a1,sp,140
     d9e:	0339                	addi	t1,t1,14
     da0:	0000                	unimp
     da2:	002a0c53          	fadd.s	fs8,fs4,ft2,rne
     da6:	0000                	unimp
     da8:	7fb89103          	lh	sp,2043(a7) # 47fb <BASE_ADDR-0x801fb805>
     dac:	c901                	beqz	a0,dbc <BASE_ADDR-0x801ff244>
     dae:	0002                	c.slli64	zero
     db0:	5400                	lw	s0,40(s0)
     db2:	2a0c                	fld	fa1,16(a2)
     db4:	0000                	unimp
     db6:	0300                	addi	s0,sp,384
     db8:	b091                	j	5fc <BASE_ADDR-0x801ffa04>
     dba:	047f                	0x47f
     dbc:	6176                	ld	sp,344(sp)
     dbe:	0031                	c.nop	12
     dc0:	1355                	addi	t1,t1,-11
     dc2:	015a                	slli	sp,sp,0x16
     dc4:	0000                	unimp
     dc6:	7fa89103          	lh	sp,2042(a7)
     dca:	7604                	ld	s1,40(a2)
     dcc:	3261                	addiw	tp,tp,-8
     dce:	5600                	lw	s0,40(a2)
     dd0:	00015a13          	srli	s4,sp,0x0
     dd4:	0300                	addi	s0,sp,384
     dd6:	a091                	j	e1a <BASE_ADDR-0x801ff1e6>
     dd8:	017f                	0x17f
     dda:	0302                	c.slli64	t1
     ddc:	0000                	unimp
     dde:	05991c5b          	0x5991c5b
     de2:	0000                	unimp
     de4:	9102                	jalr	sp
     de6:	0160                	addi	s0,sp,140
     de8:	0366                	slli	t1,t1,0x19
     dea:	0000                	unimp
     dec:	1c5c                	addi	a5,sp,564
     dee:	0599                	addi	a1,a1,6
     df0:	0000                	unimp
     df2:	9102                	jalr	sp
     df4:	0058                	addi	a4,sp,4
     df6:	00009b0b          	0x9b0b
     dfa:	0000                	unimp
     dfc:	0091                	addi	ra,ra,4
     dfe:	0000                	unimp
     e00:	0005                	c.nop	1
     e02:	0801                	addi	a6,a6,0
     e04:	0721                	addi	a4,a4,8
     e06:	0000                	unimp
     e08:	00002503          	lw	a0,0(zero) # 0 <BASE_ADDR-0x80200000>
     e0c:	1d00                	addi	s0,sp,688
     e0e:	0000010b          	0x10b
     e12:	00ea                	slli	ra,ra,0x1a
     e14:	0000                	unimp
     e16:	018c                	addi	a1,sp,192
	...
     e20:	0000                	unimp
     e22:	10c6                	slli	ra,ra,0x31
     e24:	0000                	unimp
     e26:	0801                	addi	a6,a6,0
     e28:	1205                	addi	tp,tp,-31
     e2a:	0000                	unimp
     e2c:	0100                	addi	s0,sp,128
     e2e:	0708                	addi	a0,sp,896
     e30:	0000                	unimp
     e32:	0000                	unimp
     e34:	0404                	addi	s1,sp,512
     e36:	6905                	lui	s2,0x1
     e38:	746e                	ld	s0,248(sp)
     e3a:	0500                	addi	s0,sp,640
     e3c:	0412                	slli	s0,s0,0x4
     e3e:	0000                	unimp
     e40:	0501                	addi	a0,a0,0
     e42:	4d0d                	li	s10,3
     e44:	0000                	unimp
     e46:	0200                	addi	s0,sp,256
     e48:	0600                	addi	s0,sp,768
     e4a:	0000017b          	0x17b
     e4e:	0502                	c.slli64	a0
     e50:	3805                	addiw	a6,a6,-31
     e52:	0000                	unimp
     e54:	6400                	ld	s0,8(s0)
     e56:	0000                	unimp
     e58:	0700                	addi	s0,sp,896
     e5a:	0064                	addi	s1,sp,12
     e5c:	0000                	unimp
     e5e:	0002                	c.slli64	zero
     e60:	0808                	addi	a0,sp,16
     e62:	0071                	c.nop	28
     e64:	0000                	unimp
     e66:	0101                	addi	sp,sp,0
     e68:	7f08                	ld	a0,56(a4)
     e6a:	0004                	0x4
     e6c:	0900                	addi	s0,sp,144
     e6e:	006a                	c.slli	zero,0x1a
     e70:	0000                	unimp
     e72:	050a                	slli	a0,a0,0x2
     e74:	0004                	0x4
     e76:	0100                	addi	s0,sp,128
     e78:	00380507          	0x380507
     e7c:	0000                	unimp
     e7e:	13c0                	addi	s0,sp,484
     e80:	0020                	addi	s0,sp,8
     e82:	ffe0                	sd	s0,248(a5)
     e84:	ffff                	0xffff
     e86:	0048                	addi	a0,sp,4
     e88:	0000                	unimp
     e8a:	0000                	unimp
     e8c:	0000                	unimp
     e8e:	9c01                	subw	s0,s0,s0
     e90:	8d00                	0x8d00
     e92:	0000                	unimp
     e94:	0500                	addi	s0,sp,640
     e96:	0100                	addi	s0,sp,128
     e98:	aa08                	fsd	fa0,16(a2)
     e9a:	02000007          	0x2000007
     e9e:	0025                	c.nop	9
     ea0:	0000                	unimp
     ea2:	121d                	addi	tp,tp,-25
     ea4:	0001                	nop
     ea6:	ea00                	sd	s0,16(a2)
     ea8:	0000                	unimp
     eaa:	aa00                	fsd	fs0,16(a2)
     eac:	0001                	nop
	...
     eb6:	3d00                	fld	fs0,56(a0)
     eb8:	0011                	c.nop	4
     eba:	0100                	addi	s0,sp,128
     ebc:	0508                	addi	a0,sp,640
     ebe:	0012                	c.slli	zero,0x4
     ec0:	0000                	unimp
     ec2:	0801                	addi	a6,a6,0
     ec4:	00000007          	0x7
     ec8:	0300                	addi	s0,sp,384
     eca:	0504                	addi	s1,sp,640
     ecc:	6e69                	lui	t3,0x1a
     ece:	0074                	addi	a3,sp,12
     ed0:	7b04                	ld	s1,48(a4)
     ed2:	0001                	nop
     ed4:	0200                	addi	s0,sp,256
     ed6:	0505                	addi	a0,a0,1
     ed8:	0038                	addi	a4,sp,8
     eda:	0000                	unimp
     edc:	0056                	c.slli	zero,0x15
     ede:	0000                	unimp
     ee0:	5605                	li	a2,-31
     ee2:	0000                	unimp
     ee4:	0600                	addi	s0,sp,768
     ee6:	0700                	addi	s0,sp,896
     ee8:	6308                	ld	a0,0(a4)
     eea:	0000                	unimp
     eec:	0100                	addi	s0,sp,128
     eee:	0801                	addi	a6,a6,0
     ef0:	047f                	0x47f
     ef2:	0000                	unimp
     ef4:	5c08                	lw	a0,56(s0)
     ef6:	0000                	unimp
     ef8:	0900                	addi	s0,sp,144
     efa:	0412                	slli	s0,s0,0x4
     efc:	0000                	unimp
     efe:	0601                	addi	a2,a2,0
     f00:	0806                	slli	a6,a6,0x1
     f02:	2014                	fld	fa3,0(s0)
     f04:	e000                	sd	s0,0(s0)
     f06:	ffff                	0xffff
     f08:	50ff                	0x50ff
     f0a:	0000                	unimp
     f0c:	0000                	unimp
     f0e:	0000                	unimp
     f10:	0100                	addi	s0,sp,128
     f12:	0a9c                	addi	a5,sp,336
     f14:	0069                	c.nop	26
     f16:	0801                	addi	a6,a6,0
     f18:	3809                	addiw	a6,a6,-30
     f1a:	0000                	unimp
     f1c:	0200                	addi	s0,sp,256
     f1e:	6c91                	lui	s9,0x4
     f20:	0000                	unimp
     f22:	012c                	addi	a1,sp,136
     f24:	0000                	unimp
     f26:	0005                	c.nop	1
     f28:	0801                	addi	a6,a6,0
     f2a:	0000082f          	0x82f
     f2e:	00002507          	flw	fa0,0(zero) # 0 <BASE_ADDR-0x80200000>
     f32:	1d00                	addi	s0,sp,688
     f34:	0139                	addi	sp,sp,14
     f36:	0000                	unimp
     f38:	0119                	addi	sp,sp,6
     f3a:	0000                	unimp
     f3c:	01c8                	addi	a0,sp,196
	...
     f46:	0000                	unimp
     f48:	11c8                	addi	a0,sp,228
     f4a:	0000                	unimp
     f4c:	b808                	fsd	fa0,48(s0)
     f4e:	0000                	unimp
     f50:	0300                	addi	s0,sp,384
     f52:	1704                	addi	s1,sp,928
     f54:	0036                	c.slli	zero,0xd
     f56:	0000                	unimp
     f58:	0802                	c.slli64	a6
     f5a:	00000007          	0x7
     f5e:	0900                	addi	s0,sp,144
     f60:	000000ef          	jal	ra,f60 <BASE_ADDR-0x801ff0a0>
     f64:	0210                	addi	a2,sp,256
     f66:	0808                	addi	a0,sp,16
     f68:	0061                	c.nop	24
     f6a:	0000                	unimp
     f6c:	0000bf03          	ld	t5,0(ra)
     f70:	0900                	addi	s0,sp,144
     f72:	0061                	c.nop	24
     f74:	0000                	unimp
     f76:	0300                	addi	s0,sp,384
     f78:	03da                	slli	t2,t2,0x16
     f7a:	0000                	unimp
     f7c:	610a                	ld	sp,128(sp)
     f7e:	0000                	unimp
     f80:	0800                	addi	s0,sp,16
     f82:	0200                	addi	s0,sp,256
     f84:	0508                	addi	a0,sp,640
     f86:	0012                	c.slli	zero,0x4
     f88:	0000                	unimp
     f8a:	1b0a                	slli	s6,s6,0x22
     f8c:	0000                	unimp
     f8e:	0200                	addi	s0,sp,256
     f90:	0f0d                	addi	t5,t5,3
     f92:	003d                	c.nop	15
     f94:	0000                	unimp
     f96:	00a1                	addi	ra,ra,8
     f98:	0000                	unimp
     f9a:	a101                	j	139a <BASE_ADDR-0x801fec66>
     f9c:	0000                	unimp
     f9e:	0100                	addi	s0,sp,128
     fa0:	00a1                	addi	ra,ra,8
     fa2:	0000                	unimp
     fa4:	2a01                	sext.w	s4,s4
     fa6:	0000                	unimp
     fa8:	0100                	addi	s0,sp,128
     faa:	002a                	c.slli	zero,0xa
     fac:	0000                	unimp
     fae:	2a01                	sext.w	s4,s4
     fb0:	0000                	unimp
     fb2:	0100                	addi	s0,sp,128
     fb4:	002a                	c.slli	zero,0xa
     fb6:	0000                	unimp
     fb8:	2a01                	sext.w	s4,s4
     fba:	0000                	unimp
     fbc:	0100                	addi	s0,sp,128
     fbe:	002a                	c.slli	zero,0xa
     fc0:	0000                	unimp
     fc2:	0b00                	addi	s0,sp,400
     fc4:	0504                	addi	s1,sp,640
     fc6:	6e69                	lui	t3,0x1a
     fc8:	0074                	addi	a3,sp,12
     fca:	1c04                	addi	s1,sp,560
     fcc:	0004                	0x4
     fce:	0b00                	addi	s0,sp,400
     fd0:	14cc                	addi	a1,sp,612
     fd2:	0020                	addi	s0,sp,8
     fd4:	ffe0                	sd	s0,248(a5)
     fd6:	ffff                	0xffff
     fd8:	0148                	addi	a0,sp,132
     fda:	0000                	unimp
     fdc:	0000                	unimp
     fde:	0000                	unimp
     fe0:	9c01                	subw	s0,s0,s0
     fe2:	00e9                	addi	ra,ra,26
     fe4:	0000                	unimp
     fe6:	7805                	lui	a6,0xfffe1
     fe8:	0b00                	addi	s0,sp,400
     fea:	0000a10f          	0xa10f
     fee:	0200                	addi	s0,sp,256
     ff0:	4c91                	li	s9,4
     ff2:	7306                	ld	t1,96(sp)
     ff4:	0c00                	addi	s0,sp,528
     ff6:	e90a                	sd	sp,144(sp)
     ff8:	0000                	unimp
     ffa:	0200                	addi	s0,sp,256
     ffc:	5891                	li	a7,-28
     ffe:	6906                	ld	s2,64(sp)
    1000:	0d00                	addi	s0,sp,656
    1002:	a109                	j	1404 <BASE_ADDR-0x801febfc>
    1004:	0000                	unimp
    1006:	0200                	addi	s0,sp,256
    1008:	6c91                	lui	s9,0x4
    100a:	0c00                	addi	s0,sp,528
    100c:	00f9                	addi	ra,ra,30
    100e:	0000                	unimp
    1010:	00f9                	addi	ra,ra,30
    1012:	0000                	unimp
    1014:	360d                	addiw	a2,a2,-29
    1016:	0000                	unimp
    1018:	0f00                	addi	s0,sp,912
    101a:	0200                	addi	s0,sp,256
    101c:	0801                	addi	a6,a6,0
    101e:	047f                	0x47f
    1020:	0000                	unimp
    1022:	1704                	addi	s1,sp,928
    1024:	0004                	0x4
    1026:	0400                	addi	s0,sp,512
    1028:	1458                	addi	a4,sp,548
    102a:	0020                	addi	s0,sp,8
    102c:	ffe0                	sd	s0,248(a5)
    102e:	ffff                	0xffff
    1030:	0074                	addi	a3,sp,12
    1032:	0000                	unimp
    1034:	0000                	unimp
    1036:	0000                	unimp
    1038:	9c01                	subw	s0,s0,s0
    103a:	0129                	addi	sp,sp,10
    103c:	0000                	unimp
    103e:	7305                	lui	t1,0xfffe1
    1040:	0400                	addi	s0,sp,512
    1042:	2911                	addiw	s2,s2,4
    1044:	0001                	nop
    1046:	0200                	addi	s0,sp,256
    1048:	6891                	lui	a7,0x4
    104a:	0e00                	addi	s0,sp,784
    104c:	f908                	sd	a0,48(a0)
    104e:	0000                	unimp
    1050:	0000                	unimp
    1052:	000003b7          	lui	t2,0x0
    1056:	0005                	c.nop	1
    1058:	0801                	addi	a6,a6,0
    105a:	0906                	slli	s2,s2,0x1
    105c:	0000                	unimp
    105e:	0000250b          	0x250b
    1062:	1d00                	addi	s0,sp,688
    1064:	0141                	addi	sp,sp,16
    1066:	0000                	unimp
    1068:	0119                	addi	sp,sp,6
    106a:	0000                	unimp
    106c:	000001f7          	0x1f7
	...
    1078:	1304                	addi	s1,sp,416
    107a:	0000                	unimp
    107c:	12050807          	0x12050807
    1080:	0000                	unimp
    1082:	0800                	addi	s0,sp,16
    1084:	0000042b          	0x42b
    1088:	0402                	c.slli64	s0
    108a:	00003d17          	auipc	s10,0x3
    108e:	0700                	addi	s0,sp,896
    1090:	0708                	addi	a0,sp,896
    1092:	0000                	unimp
    1094:	0000                	unimp
    1096:	040c                	addi	a1,sp,512
    1098:	6905                	lui	s2,0x1
    109a:	746e                	ld	s0,248(sp)
    109c:	0800                	addi	s0,sp,16
    109e:	0442                	slli	s0,s0,0x10
    10a0:	0000                	unimp
    10a2:	0a02                	c.slli64	s4
    10a4:	0000571b          	srliw	a4,zero,0x0
    10a8:	0d00                	addi	s0,sp,656
    10aa:	3808                	fld	fa0,48(s0)
    10ac:	0004                	0x4
    10ae:	0800                	addi	s0,sp,16
    10b0:	00b8                	addi	a4,sp,72
    10b2:	0000                	unimp
    10b4:	3d170403          	lb	s0,977(a4)
    10b8:	0000                	unimp
    10ba:	0e00                	addi	s0,sp,784
    10bc:	000000ef          	jal	ra,10bc <BASE_ADDR-0x801fef44>
    10c0:	0410                	addi	a2,sp,512
    10c2:	0808                	addi	a0,sp,16
    10c4:	008d                	addi	ra,ra,3
    10c6:	0000                	unimp
    10c8:	bf09                	j	fda <BASE_ADDR-0x801ff026>
    10ca:	0000                	unimp
    10cc:	0900                	addi	s0,sp,144
    10ce:	002a                	c.slli	zero,0xa
    10d0:	0000                	unimp
    10d2:	0900                	addi	s0,sp,144
    10d4:	03da                	slli	t2,t2,0x16
    10d6:	0000                	unimp
    10d8:	2a0a                	fld	fs4,128(sp)
    10da:	0000                	unimp
    10dc:	0800                	addi	s0,sp,16
    10de:	0f00                	addi	s0,sp,912
    10e0:	0000001b          	sext.w	zero,zero
    10e4:	0d04                	addi	s1,sp,656
    10e6:	0000690f          	0x690f
    10ea:	c600                	sw	s0,8(a2)
    10ec:	0000                	unimp
    10ee:	0200                	addi	s0,sp,256
    10f0:	0044                	addi	s1,sp,4
    10f2:	0000                	unimp
    10f4:	4402                	lw	s0,0(sp)
    10f6:	0000                	unimp
    10f8:	0200                	addi	s0,sp,256
    10fa:	005d                	c.nop	23
    10fc:	0000                	unimp
    10fe:	5d02                	lw	s10,32(sp)
    1100:	0000                	unimp
    1102:	0200                	addi	s0,sp,256
    1104:	005d                	c.nop	23
    1106:	0000                	unimp
    1108:	5d02                	lw	s10,32(sp)
    110a:	0000                	unimp
    110c:	0200                	addi	s0,sp,256
    110e:	005d                	c.nop	23
    1110:	0000                	unimp
    1112:	5d02                	lw	s10,32(sp)
    1114:	0000                	unimp
    1116:	0000                	unimp
    1118:	7b10                	ld	a2,48(a4)
    111a:	0001                	nop
    111c:	0100                	addi	s0,sp,128
    111e:	056a                	slli	a0,a0,0x1a
    1120:	0044                	addi	s1,sp,4
    1122:	0000                	unimp
    1124:	1b40                	addi	s0,sp,436
    1126:	0020                	addi	s0,sp,8
    1128:	ffe0                	sd	s0,248(a5)
    112a:	ffff                	0xffff
    112c:	0080                	addi	s0,sp,64
    112e:	0000                	unimp
    1130:	0000                	unimp
    1132:	0000                	unimp
    1134:	9c01                	subw	s0,s0,s0
    1136:	0114                	addi	a3,sp,128
    1138:	0000                	unimp
    113a:	7306                	ld	t1,96(sp)
    113c:	6a00                	ld	s0,16(a2)
    113e:	1418                	addi	a4,sp,544
    1140:	0001                	nop
    1142:	0300                	addi	s0,sp,384
    1144:	9891                	andi	s1,s1,-28
    1146:	117f                	0x117f
    1148:	7201                	lui	tp,0xfffe0
    114a:	7365                	lui	t1,0xffff9
    114c:	6b00                	ld	s0,16(a4)
    114e:	4409                	li	s0,2
    1150:	0000                	unimp
    1152:	0300                	addi	s0,sp,384
    1154:	ac91                	j	13a8 <BASE_ADDR-0x801fec58>
    1156:	017f                	0x17f
    1158:	6c76                	ld	s8,344(sp)
    115a:	6c00                	ld	s0,24(s0)
    115c:	4b0d                	li	s6,3
    115e:	0000                	unimp
    1160:	0300                	addi	s0,sp,384
    1162:	a091                	j	11a6 <BASE_ADDR-0x801fee5a>
    1164:	007f                	0x7f
    1166:	200a                	fld	ft0,128(sp)
    1168:	0001                	nop
    116a:	0700                	addi	s0,sp,896
    116c:	0801                	addi	a6,a6,0
    116e:	047f                	0x47f
    1170:	0000                	unimp
    1172:	1912                	slli	s2,s2,0x24
    1174:	0001                	nop
    1176:	1300                	addi	s0,sp,416
    1178:	044a                	slli	s0,s0,0x12
    117a:	0000                	unimp
    117c:	0801                	addi	a6,a6,0
    117e:	440c                	lw	a1,8(s0)
    1180:	0000                	unimp
    1182:	6400                	ld	s0,8(s0)
    1184:	2016                	fld	ft0,320(sp)
    1186:	e000                	sd	s0,0(s0)
    1188:	ffff                	0xffff
    118a:	dcff                	0xdcff
    118c:	0004                	0x4
    118e:	0000                	unimp
    1190:	0000                	unimp
    1192:	0100                	addi	s0,sp,128
    1194:	739c                	ld	a5,32(a5)
    1196:	14000003          	lb	zero,320(zero) # 140 <BASE_ADDR-0x801ffec0>
    119a:	0432                	slli	s0,s0,0xc
    119c:	0000                	unimp
    119e:	0801                	addi	a6,a6,0
    11a0:	7e1c                	ld	a5,56(a2)
    11a2:	03000003          	lb	zero,48(zero) # 30 <BASE_ADDR-0x801fffd0>
    11a6:	b891                	j	9fa <BASE_ADDR-0x801ff606>
    11a8:	067e                	slli	a2,a2,0x1f
    11aa:	6d66                	ld	s10,88(sp)
    11ac:	0074                	addi	a3,sp,12
    11ae:	3608                	fld	fa0,40(a2)
    11b0:	0114                	addi	a3,sp,128
    11b2:	0000                	unimp
    11b4:	7eb09103          	lh	sp,2027(ra)
    11b8:	7606                	ld	a2,96(sp)
    11ba:	006c                	addi	a1,sp,12
    11bc:	4308                	lw	a0,0(a4)
    11be:	0000004b          	fnmsub.s	ft0,ft0,ft0,ft0,rne
    11c2:	7ea89103          	lh	sp,2026(a7) # 47ea <BASE_ADDR-0x801fb816>
    11c6:	00046203          	lwu	tp,0(s0) # ffffffffffff9000 <_ebss+0x1fffdf0060>
    11ca:	0900                	addi	s0,sp,144
    11cc:	4409                	li	s0,2
    11ce:	0000                	unimp
    11d0:	0200                	addi	s0,sp,256
    11d2:	6c91                	lui	s9,0x4
    11d4:	00047403          	0x47403
    11d8:	0900                	addi	s0,sp,144
    11da:	4418                	lw	a4,8(s0)
    11dc:	0000                	unimp
    11de:	0200                	addi	s0,sp,256
    11e0:	6891                	lui	a7,0x4
    11e2:	7001                	c.lui	zero,0xfffe0
    11e4:	0a00736f          	jal	t1,8284 <BASE_ADDR-0x801f7d7c>
    11e8:	310c                	fld	fa1,32(a0)
    11ea:	0000                	unimp
    11ec:	0200                	addi	s0,sp,256
    11ee:	6091                	lui	ra,0x4
    11f0:	f404                	sd	s1,40(s0)
    11f2:	2016                	fld	ft0,320(sp)
    11f4:	e000                	sd	s0,0(s0)
    11f6:	ffff                	0xffff
    11f8:	f4ff                	0xf4ff
    11fa:	0000                	unimp
    11fc:	0000                	unimp
    11fe:	0000                	unimp
    1200:	2200                	fld	fs0,0(a2)
    1202:	0002                	c.slli64	zero
    1204:	0100                	addi	s0,sp,128
    1206:	756e                	ld	a0,248(sp)
    1208:	006d                	c.nop	27
    120a:	1a14                	addi	a3,sp,304
    120c:	002a                	c.slli	zero,0xa
    120e:	0000                	unimp
    1210:	7f989103          	lh	sp,2041(a7) # 47f9 <BASE_ADDR-0x801fb807>
    1214:	00042103          	lw	sp,0(s0)
    1218:	1600                	addi	s0,sp,800
    121a:	4419                	li	s0,6
    121c:	0000                	unimp
    121e:	0300                	addi	s0,sp,384
    1220:	9491                	srai	s1,s1,0x24
    1222:	057f                	0x57f
    1224:	1744                	addi	s1,sp,932
    1226:	0020                	addi	s0,sp,8
    1228:	ffe0                	sd	s0,248(a5)
    122a:	ffff                	0xffff
    122c:	0098                	addi	a4,sp,64
    122e:	0000                	unimp
    1230:	0000                	unimp
    1232:	0000                	unimp
    1234:	00045403          	lhu	s0,0(s0)
    1238:	1700                	addi	s0,sp,928
    123a:	441d                	li	s0,7
    123c:	0000                	unimp
    123e:	0200                	addi	s0,sp,256
    1240:	5c91                	li	s9,-28
    1242:	5005                	c.li	zero,-31
    1244:	e0002017          	auipc	zero,0xe0002
    1248:	ffff                	0xffff
    124a:	74ff                	0x74ff
    124c:	0000                	unimp
    124e:	0000                	unimp
    1250:	0000                	unimp
    1252:	0100                	addi	s0,sp,128
    1254:	6568                	ld	a0,200(a0)
    1256:	0078                	addi	a4,sp,12
    1258:	1d18                	addi	a4,sp,688
    125a:	0044                	addi	s1,sp,4
    125c:	0000                	unimp
    125e:	7f909103          	lh	sp,2041(ra) # 47f9 <BASE_ADDR-0x801fb807>
    1262:	00046c03          	lwu	s8,0(s0)
    1266:	1900                	addi	s0,sp,176
    1268:	191e                	slli	s2,s2,0x27
    126a:	0001                	nop
    126c:	0300                	addi	s0,sp,384
    126e:	8f91                	sub	a5,a5,a2
    1270:	007f                	0x7f
    1272:	0000                	unimp
    1274:	e804                	sd	s1,16(s0)
    1276:	e0002017          	auipc	zero,0xe0002
    127a:	ffff                	0xffff
    127c:	38ff                	0x38ff
    127e:	0001                	nop
    1280:	0000                	unimp
    1282:	0000                	unimp
    1284:	a600                	fsd	fs0,8(a2)
    1286:	0002                	c.slli64	zero
    1288:	0100                	addi	s0,sp,128
    128a:	756e                	ld	a0,248(sp)
    128c:	006d                	c.nop	27
    128e:	1a22                	slli	s4,s4,0x28
    1290:	002a                	c.slli	zero,0xa
    1292:	0000                	unimp
    1294:	9102                	jalr	sp
    1296:	0350                	addi	a2,sp,388
    1298:	0484                	addi	s1,sp,576
    129a:	0000                	unimp
    129c:	00441927          	0x441927
    12a0:	0000                	unimp
    12a2:	9102                	jalr	sp
    12a4:	034c                	addi	a1,sp,388
    12a6:	047c                	addi	a5,sp,524
    12a8:	0000                	unimp
    12aa:	1a28                	addi	a0,sp,312
    12ac:	00000383          	lb	t2,0(zero) # 0 <BASE_ADDR-0x80200000>
    12b0:	7ee09103          	lh	sp,2030(ra)
    12b4:	6004                	ld	s1,0(s0)
    12b6:	2018                	fld	fa4,0(s0)
    12b8:	e000                	sd	s0,0(s0)
    12ba:	ffff                	0xffff
    12bc:	58ff                	0x58ff
    12be:	0000                	unimp
    12c0:	0000                	unimp
    12c2:	0000                	unimp
    12c4:	8600                	0x8600
    12c6:	0002                	c.slli64	zero
    12c8:	0100                	addi	s0,sp,128
    12ca:	6d74                	ld	a3,216(a0)
    12cc:	0070                	addi	a2,sp,12
    12ce:	1f29                	addi	t5,t5,-22
    12d0:	002a                	c.slli	zero,0xa
    12d2:	0000                	unimp
    12d4:	9102                	jalr	sp
    12d6:	0040                	addi	s0,sp,4
    12d8:	b805                	j	b08 <BASE_ADDR-0x801ff4f8>
    12da:	2018                	fld	fa4,0(s0)
    12dc:	e000                	sd	s0,0(s0)
    12de:	ffff                	0xffff
    12e0:	40ff                	0x40ff
    12e2:	0000                	unimp
    12e4:	0000                	unimp
    12e6:	0000                	unimp
    12e8:	0100                	addi	s0,sp,128
    12ea:	0069                	c.nop	26
    12ec:	1e2e                	slli	t3,t3,0x2b
    12ee:	0044                	addi	s1,sp,4
    12f0:	0000                	unimp
    12f2:	7fbc9103          	lh	sp,2043(s9) # 47fb <BASE_ADDR-0x801fb805>
    12f6:	0000                	unimp
    12f8:	2004                	fld	fs1,0(s0)
    12fa:	2019                	0x2019
    12fc:	e000                	sd	s0,0(s0)
    12fe:	ffff                	0xffff
    1300:	0cff                	0xcff
    1302:	0001                	nop
    1304:	0000                	unimp
    1306:	0000                	unimp
    1308:	2d00                	fld	fs0,24(a0)
    130a:	01000003          	lb	zero,16(zero) # 10 <BASE_ADDR-0x801ffff0>
    130e:	756e                	ld	a0,248(sp)
    1310:	006d                	c.nop	27
    1312:	003d2337          	lui	t1,0x3d2
    1316:	0000                	unimp
    1318:	7f809103          	lh	sp,2040(ra)
    131c:	00048403          	lb	s0,0(s1)
    1320:	3800                	fld	fs0,48(s0)
    1322:	4419                	li	s0,6
    1324:	0000                	unimp
    1326:	0300                	addi	s0,sp,384
    1328:	b891                	j	b7c <BASE_ADDR-0x801ff484>
    132a:	037f                	0x37f
    132c:	047c                	addi	a5,sp,524
    132e:	0000                	unimp
    1330:	1a39                	addi	s4,s4,-18
    1332:	00000383          	lb	t2,0(zero) # 0 <BASE_ADDR-0x80200000>
    1336:	7ec09103          	lh	sp,2028(ra)
    133a:	6c04                	ld	s1,24(s0)
    133c:	2019                	0x2019
    133e:	e000                	sd	s0,0(s0)
    1340:	ffff                	0xffff
    1342:	58ff                	0x58ff
    1344:	0000                	unimp
    1346:	0000                	unimp
    1348:	0000                	unimp
    134a:	0d00                	addi	s0,sp,656
    134c:	01000003          	lb	zero,16(zero) # 10 <BASE_ADDR-0x801ffff0>
    1350:	6d74                	ld	a3,216(a0)
    1352:	0070                	addi	a2,sp,12
    1354:	1f3a                	slli	t5,t5,0x2e
    1356:	002a                	c.slli	zero,0xa
    1358:	0000                	unimp
    135a:	7fb09103          	lh	sp,2043(ra)
    135e:	0500                	addi	s0,sp,640
    1360:	19c4                	addi	s1,sp,244
    1362:	0020                	addi	s0,sp,8
    1364:	ffe0                	sd	s0,248(a5)
    1366:	ffff                	0xffff
    1368:	0040                	addi	s0,sp,4
    136a:	0000                	unimp
    136c:	0000                	unimp
    136e:	0000                	unimp
    1370:	6901                	0x6901
    1372:	3f00                	fld	fs0,56(a4)
    1374:	441e                	lw	s0,196(sp)
    1376:	0000                	unimp
    1378:	0300                	addi	s0,sp,384
    137a:	ac91                	j	15ce <BASE_ADDR-0x801fea32>
    137c:	007f                	0x7f
    137e:	0400                	addi	s0,sp,512
    1380:	1a2c                	addi	a1,sp,312
    1382:	0020                	addi	s0,sp,8
    1384:	ffe0                	sd	s0,248(a5)
    1386:	ffff                	0xffff
    1388:	005c                	addi	a5,sp,4
    138a:	0000                	unimp
    138c:	0000                	unimp
    138e:	0000                	unimp
    1390:	0352                	slli	t1,t1,0x14
    1392:	0000                	unimp
    1394:	7301                	lui	t1,0xfffe0
    1396:	7274                	ld	a3,224(a2)
    1398:	4800                	lw	s0,16(s0)
    139a:	1421                	addi	s0,s0,-24
    139c:	0001                	nop
    139e:	0300                	addi	s0,sp,384
    13a0:	a091                	j	13e4 <BASE_ADDR-0x801fec1c>
    13a2:	007f                	0x7f
    13a4:	8805                	andi	s0,s0,1
    13a6:	201a                	fld	ft0,384(sp)
    13a8:	e000                	sd	s0,0(s0)
    13aa:	ffff                	0xffff
    13ac:	3cff                	0x3cff
    13ae:	0000                	unimp
    13b0:	0000                	unimp
    13b2:	0000                	unimp
    13b4:	0100                	addi	s0,sp,128
    13b6:	53006863          	bltu	zero,a6,18e6 <BASE_ADDR-0x801fe71a>
    13ba:	191a                	slli	s2,s2,0x26
    13bc:	0001                	nop
    13be:	0300                	addi	s0,sp,384
    13c0:	ff91                	bnez	a5,12dc <BASE_ADDR-0x801fed24>
    13c2:	007e                	c.slli	zero,0x1f
    13c4:	1500                	addi	s0,sp,672
    13c6:	037e                	slli	t1,t1,0x1f
    13c8:	0000                	unimp
    13ca:	1902                	slli	s2,s2,0x20
    13cc:	0001                	nop
    13ce:	0000                	unimp
    13d0:	730a                	ld	t1,160(sp)
    13d2:	16000003          	lb	zero,352(zero) # 160 <BASE_ADDR-0x801ffea0>
    13d6:	0119                	addi	sp,sp,6
    13d8:	0000                	unimp
    13da:	00000393          	li	t2,0
    13de:	00003d17          	auipc	s10,0x3
    13e2:	1800                	addi	s0,sp,48
    13e4:	1800                	addi	s0,sp,48
    13e6:	045d                	addi	s0,s0,23
    13e8:	0000                	unimp
    13ea:	0401                	addi	s0,s0,0
    13ec:	1406                	slli	s0,s0,0x21
    13ee:	2016                	fld	ft0,320(sp)
    13f0:	e000                	sd	s0,0(s0)
    13f2:	ffff                	0xffff
    13f4:	50ff                	0x50ff
    13f6:	0000                	unimp
    13f8:	0000                	unimp
    13fa:	0000                	unimp
    13fc:	0100                	addi	s0,sp,128
    13fe:	069c                	addi	a5,sp,832
    1400:	10040063          	beqz	s0,1500 <BASE_ADDR-0x801feb00>
    1404:	0119                	addi	sp,sp,6
    1406:	0000                	unimp
    1408:	9102                	jalr	sp
    140a:	b800006f          	j	fffffffffff0178a <_ebss+0x1fffcf87ea>
    140e:	0000                	unimp
    1410:	0500                	addi	s0,sp,640
    1412:	0100                	addi	s0,sp,128
    1414:	6708                	ld	a0,8(a4)
    1416:	000a                	c.slli	zero,0x2
    1418:	0200                	addi	s0,sp,256
    141a:	0025                	c.nop	9
    141c:	0000                	unimp
    141e:	531d                	li	t1,-25
    1420:	0001                	nop
    1422:	1900                	addi	s0,sp,176
    1424:	0001                	nop
    1426:	3700                	fld	fs0,40(a4)
    1428:	0002                	c.slli64	zero
	...
    1432:	e600                	sd	s0,8(a2)
    1434:	03000017          	auipc	zero,0x3000
    1438:	00b8                	addi	a4,sp,72
    143a:	0000                	unimp
    143c:	0402                	c.slli64	s0
    143e:	00003617          	auipc	a2,0x3
    1442:	0400                	addi	s0,sp,512
    1444:	0708                	addi	a0,sp,896
    1446:	0000                	unimp
    1448:	0000                	unimp
    144a:	8905                	andi	a0,a0,1
    144c:	0004                	0x4
    144e:	0100                	addi	s0,sp,128
    1450:	00530503          	lb	a0,5(t1) # fffffffffffe0005 <_ebss+0x1fffdd7065>
    1454:	0000                	unimp
    1456:	0309                	addi	t1,t1,2
    1458:	5018                	lw	a4,32(s0)
    145a:	0020                	addi	s0,sp,8
    145c:	ffe0                	sd	s0,248(a5)
    145e:	ffff                	0xffff
    1460:	0406                	slli	s0,s0,0x1
    1462:	6905                	lui	s2,0x1
    1464:	746e                	ld	s0,248(sp)
    1466:	0700                	addi	s0,sp,896
    1468:	00000053          	fadd.s	ft0,ft0,ft0,rne
    146c:	0000006b          	0x6b
    1470:	3608                	fld	fa0,40(a2)
    1472:	0000                	unimp
    1474:	e700                	sd	s0,8(a4)
    1476:	72010003          	lb	zero,1824(sp)
    147a:	0400                	addi	s0,sp,512
    147c:	005a                	c.slli	zero,0x16
    147e:	0000                	unimp
    1480:	0309                	addi	t1,t1,2
    1482:	8000                	0x8000
    1484:	0020                	addi	s0,sp,8
    1486:	ffe0                	sd	s0,248(a5)
    1488:	ffff                	0xffff
    148a:	7401                	lui	s0,0xfffe0
    148c:	0500                	addi	s0,sp,640
    148e:	00000053          	fadd.s	ft0,ft0,ft0,rne
    1492:	0309                	addi	t1,t1,2
    1494:	501c                	lw	a5,32(s0)
    1496:	0020                	addi	s0,sp,8
    1498:	ffe0                	sd	s0,248(a5)
    149a:	ffff                	0xffff
    149c:	5509                	li	a0,-30
    149e:	0002                	c.slli64	zero
    14a0:	0100                	addi	s0,sp,128
    14a2:	002a0807          	0x2a0807
    14a6:	0000                	unimp
    14a8:	1bc0                	addi	s0,sp,500
    14aa:	0020                	addi	s0,sp,8
    14ac:	ffe0                	sd	s0,248(a5)
    14ae:	ffff                	0xffff
    14b0:	0310                	addi	a2,sp,384
    14b2:	0000                	unimp
    14b4:	0000                	unimp
    14b6:	0000                	unimp
    14b8:	9c01                	subw	s0,s0,s0
    14ba:	690a                	ld	s2,128(sp)
    14bc:	0100                	addi	s0,sp,128
    14be:	0908                	addi	a0,sp,144
    14c0:	00000053          	fadd.s	ft0,ft0,ft0,rne
    14c4:	9102                	jalr	sp
    14c6:	006c                	addi	a1,sp,12
    14c8:	c400                	sw	s0,8(s0)
    14ca:	0000                	unimp
    14cc:	0500                	addi	s0,sp,640
    14ce:	0100                	addi	s0,sp,128
    14d0:	0408                	addi	a0,sp,512
    14d2:	0300000b          	0x300000b
    14d6:	0025                	c.nop	9
    14d8:	0000                	unimp
    14da:	5a1d                	li	s4,-25
    14dc:	0001                	nop
    14de:	1900                	addi	s0,sp,176
    14e0:	0001                	nop
    14e2:	5500                	lw	s0,40(a0)
    14e4:	0002                	c.slli64	zero
	...
    14ee:	fb00                	sd	s0,48(a4)
    14f0:	0019                	c.nop	6
    14f2:	0400                	addi	s0,sp,512
    14f4:	00b8                	addi	a4,sp,72
    14f6:	0000                	unimp
    14f8:	0402                	c.slli64	s0
    14fa:	00003617          	auipc	a2,0x3
    14fe:	0200                	addi	s0,sp,256
    1500:	0708                	addi	a0,sp,896
    1502:	0000                	unimp
    1504:	0000                	unimp
    1506:	8805                	andi	s0,s0,1
    1508:	0001                	nop
    150a:	0100                	addi	s0,sp,128
    150c:	00b10703          	lb	a4,11(sp)
    1510:	0000                	unimp
    1512:	1ed0                	addi	a2,sp,884
    1514:	0020                	addi	s0,sp,8
    1516:	ffe0                	sd	s0,248(a5)
    1518:	ffff                	0xffff
    151a:	0070                	addi	a2,sp,12
    151c:	0000                	unimp
    151e:	0000                	unimp
    1520:	0000                	unimp
    1522:	9c01                	subw	s0,s0,s0
    1524:	00b1                	addi	ra,ra,12
    1526:	0000                	unimp
    1528:	6401                	0x6401
    152a:	14007473          	csrrci	s0,sscratch,0
    152e:	00b1                	addi	ra,ra,12
    1530:	0000                	unimp
    1532:	9102                	jalr	sp
    1534:	0158                	addi	a4,sp,132
    1536:	b31d0063          	beq	s10,a7,856 <BASE_ADDR-0x801ff7aa>
    153a:	0000                	unimp
    153c:	0200                	addi	s0,sp,256
    153e:	5491                	li	s1,-28
    1540:	6e01                	0x6e01
    1542:	2700                	fld	fs0,8(a4)
    1544:	002a                	c.slli	zero,0xa
    1546:	0000                	unimp
    1548:	9102                	jalr	sp
    154a:	0648                	addi	a0,sp,772
    154c:	0494                	addi	a3,sp,576
    154e:	0000                	unimp
    1550:	0401                	addi	s0,s0,0
    1552:	0000ba0b          	0xba0b
    1556:	0200                	addi	s0,sp,256
    1558:	6091                	lui	ra,0x4
    155a:	201ef407          	0x201ef407
    155e:	e000                	sd	s0,0(s0)
    1560:	ffff                	0xffff
    1562:	38ff                	0x38ff
    1564:	0000                	unimp
    1566:	0000                	unimp
    1568:	0000                	unimp
    156a:	0800                	addi	s0,sp,16
    156c:	0069                	c.nop	26
    156e:	0501                	addi	a0,a0,0
    1570:	2a11                	addiw	s4,s4,4
    1572:	0000                	unimp
    1574:	0200                	addi	s0,sp,256
    1576:	6891                	lui	a7,0x4
    1578:	0000                	unimp
    157a:	0809                	addi	a6,a6,2
    157c:	040a                	slli	s0,s0,0x2
    157e:	6905                	lui	s2,0x1
    1580:	746e                	ld	s0,248(sp)
    1582:	0b00                	addi	s0,sp,400
    1584:	c008                	sw	a0,0(s0)
    1586:	0000                	unimp
    1588:	0200                	addi	s0,sp,256
    158a:	0801                	addi	a6,a6,0
    158c:	047f                	0x47f
    158e:	0000                	unimp
	...

Disassembly of section .debug_abbrev:

0000000000000000 <.debug_abbrev>:
   0:	0501                	addi	a0,a0,0
   2:	4900                	lw	s0,16(a0)
   4:	02000013          	li	zero,32
   8:	0024                	addi	s1,sp,8
   a:	3e08210b          	0x3e08210b
   e:	000e030b          	0xe030b
  12:	0300                	addi	s0,sp,384
  14:	000d                	c.nop	3
  16:	213a0e03          	lb	t3,531(s4)
  1a:	3b02                	fld	fs6,32(sp)
  1c:	0721390b          	0x721390b
  20:	1349                	addi	t1,t1,-14
  22:	0b38                	addi	a4,sp,408
  24:	0000                	unimp
  26:	3404                	fld	fs1,40(s0)
  28:	0300                	addi	s0,sp,384
  2a:	3a0e                	fld	fs4,224(sp)
  2c:	0121                	addi	sp,sp,8
  2e:	21390b3b          	0x21390b3b
  32:	02134913          	xori	s2,t1,33
  36:	0018                	0x18
  38:	0500                	addi	s0,sp,640
  3a:	0111                	addi	sp,sp,4
  3c:	0e25                	addi	t3,t3,9
  3e:	1f030b13          	addi	s6,t1,496
  42:	17551f1b          	0x17551f1b
  46:	0111                	addi	sp,sp,4
  48:	1710                	addi	a2,sp,928
  4a:	0000                	unimp
  4c:	1606                	slli	a2,a2,0x21
  4e:	0300                	addi	s0,sp,384
  50:	3a0e                	fld	fs4,224(sp)
  52:	390b3b0b          	0x390b3b0b
  56:	0013490b          	0x13490b
  5a:	0700                	addi	s0,sp,896
  5c:	0e030113          	addi	sp,t1,224
  60:	0b3a0b0b          	0xb3a0b0b
  64:	0b390b3b          	0xb390b3b
  68:	1301                	addi	t1,t1,-32
  6a:	0000                	unimp
  6c:	3408                	fld	fa0,40(s0)
  6e:	0300                	addi	s0,sp,384
  70:	3a0e                	fld	fs4,224(sp)
  72:	390b3b0b          	0x390b3b0b
  76:	3f13490b          	0x3f13490b
  7a:	0219                	addi	tp,tp,6
  7c:	0018                	0x18
  7e:	0900                	addi	s0,sp,144
  80:	012e                	slli	sp,sp,0xb
  82:	0e03193f 0b3b0b3a 	0xb3b0b3a0e03193f
  8a:	0b39                	addi	s6,s6,14
  8c:	13491927          	0x13491927
  90:	193c                	addi	a5,sp,184
  92:	1301                	addi	t1,t1,-32
  94:	0000                	unimp
  96:	240a                	fld	fs0,128(sp)
  98:	0b00                	addi	s0,sp,400
  9a:	030b3e0b          	0x30b3e0b
  9e:	0008                	0x8
  a0:	0b00                	addi	s0,sp,400
  a2:	012e                	slli	sp,sp,0xb
  a4:	0e03193f 0b3b0b3a 	0xb3b0b3a0e03193f
  ac:	0b39                	addi	s6,s6,14
  ae:	0111                	addi	sp,sp,4
  b0:	0712                	slli	a4,a4,0x4
  b2:	1840                	addi	s0,sp,52
  b4:	197c                	addi	a5,sp,188
  b6:	1301                	addi	t1,t1,-32
  b8:	0000                	unimp
  ba:	2e0c                	fld	fa1,24(a2)
  bc:	3f01                	addiw	t5,t5,-32
  be:	0319                	addi	t1,t1,6
  c0:	3a0e                	fld	fs4,224(sp)
  c2:	390b3b0b          	0x390b3b0b
  c6:	1113490b          	0x1113490b
  ca:	1201                	addi	tp,tp,-32
  cc:	7a184007          	flq	ft0,1953(a6) # fffffffffffe17a1 <_ebss+0x1fffdd8801>
  d0:	0019                	c.nop	6
  d2:	0000                	unimp
  d4:	1101                	addi	sp,sp,-32
  d6:	1000                	addi	s0,sp,32
  d8:	12011117          	auipc	sp,0x12011
  dc:	1b0e030f          	0x1b0e030f
  e0:	250e                	fld	fa0,192(sp)
  e2:	130e                	slli	t1,t1,0x23
  e4:	0005                	c.nop	1
  e6:	0000                	unimp
  e8:	1101                	addi	sp,sp,-32
  ea:	1000                	addi	s0,sp,32
  ec:	12011117          	auipc	sp,0x12011
  f0:	1b0e030f          	0x1b0e030f
  f4:	250e                	fld	fa0,192(sp)
  f6:	130e                	slli	t1,t1,0x23
  f8:	0005                	c.nop	1
  fa:	0000                	unimp
  fc:	0501                	addi	a0,a0,0
  fe:	4900                	lw	s0,16(a0)
 100:	02000013          	li	zero,32
 104:	0024                	addi	s1,sp,8
 106:	0b3e0b0b          	0xb3e0b0b
 10a:	00000e03          	lb	t3,0(zero) # 0 <BASE_ADDR-0x80200000>
 10e:	0b000f03          	lb	t5,176(zero) # b0 <BASE_ADDR-0x801fff50>
 112:	0821                	addi	a6,a6,8
 114:	1349                	addi	t1,t1,-14
 116:	0000                	unimp
 118:	0d04                	addi	s1,sp,656
 11a:	0300                	addi	s0,sp,384
 11c:	3a0e                	fld	fs4,224(sp)
 11e:	390b3b0b          	0x390b3b0b
 122:	1121                	addi	sp,sp,-24
 124:	1349                	addi	t1,t1,-14
 126:	2138                	fld	fa4,64(a0)
 128:	0000                	unimp
 12a:	0500                	addi	s0,sp,640
 12c:	012e                	slli	sp,sp,0xb
 12e:	0e03193f 213b0b3a 	0x213b0b3a0e03193f
 136:	3905                	addiw	s2,s2,-31
 138:	4919270b          	0x4919270b
 13c:	01193c13          	sltiu	s8,s2,17
 140:	06000013          	li	zero,96
 144:	012e                	slli	sp,sp,0xb
 146:	0e03193f 3b01213a 	0x3b01213a0e03193f
 14e:	0621390b          	0x621390b
 152:	01111927          	0x1111927
 156:	0712                	slli	a4,a4,0x4
 158:	1840                	addi	s0,sp,52
 15a:	197c                	addi	a5,sp,188
 15c:	1301                	addi	t1,t1,-32
 15e:	0000                	unimp
 160:	03000507          	0x3000507
 164:	3a0e                	fld	fs4,224(sp)
 166:	0121                	addi	sp,sp,8
 168:	0b390b3b          	0xb390b3b
 16c:	1349                	addi	t1,t1,-14
 16e:	1802                	slli	a6,a6,0x20
 170:	0000                	unimp
 172:	3408                	fld	fa0,40(s0)
 174:	0300                	addi	s0,sp,384
 176:	3a08                	fld	fa0,48(a2)
 178:	0121                	addi	sp,sp,8
 17a:	21390b3b          	0x21390b3b
 17e:	4911                	li	s2,4
 180:	00180213          	addi	tp,a6,1
 184:	0900                	addi	s0,sp,144
 186:	0111                	addi	sp,sp,4
 188:	0e25                	addi	t3,t3,9
 18a:	1f030b13          	addi	s6,t1,496
 18e:	17551f1b          	0x17551f1b
 192:	0111                	addi	sp,sp,4
 194:	1710                	addi	a2,sp,928
 196:	0000                	unimp
 198:	160a                	slli	a2,a2,0x22
 19a:	0300                	addi	s0,sp,384
 19c:	3a0e                	fld	fs4,224(sp)
 19e:	390b3b0b          	0x390b3b0b
 1a2:	0013490b          	0x13490b
 1a6:	0b00                	addi	s0,sp,400
 1a8:	08030113          	addi	sp,t1,128
 1ac:	0b3a0b0b          	0xb3a0b0b
 1b0:	0b390b3b          	0xb390b3b
 1b4:	1301                	addi	t1,t1,-32
 1b6:	0000                	unimp
 1b8:	240c                	fld	fa1,8(s0)
 1ba:	0b00                	addi	s0,sp,400
 1bc:	030b3e0b          	0x30b3e0b
 1c0:	0008                	0x8
 1c2:	0d00                	addi	s0,sp,656
 1c4:	0101                	addi	sp,sp,0
 1c6:	1349                	addi	t1,t1,-14
 1c8:	1301                	addi	t1,t1,-32
 1ca:	0000                	unimp
 1cc:	210e                	fld	ft2,192(sp)
 1ce:	0000                	unimp
 1d0:	0f00                	addi	s0,sp,912
 1d2:	0026                	c.slli	zero,0x9
 1d4:	1349                	addi	t1,t1,-14
 1d6:	0000                	unimp
 1d8:	3410                	fld	fa2,40(s0)
 1da:	0300                	addi	s0,sp,384
 1dc:	3a0e                	fld	fs4,224(sp)
 1de:	390b3b0b          	0x390b3b0b
 1e2:	3f13490b          	0x3f13490b
 1e6:	3c19                	addiw	s8,s8,-26
 1e8:	0019                	c.nop	6
 1ea:	1100                	addi	s0,sp,160
 1ec:	0b0b0113          	addi	sp,s6,176
 1f0:	0b3a                	slli	s6,s6,0xe
 1f2:	0b390b3b          	0xb390b3b
 1f6:	1301                	addi	t1,t1,-32
 1f8:	0000                	unimp
 1fa:	3412                	fld	fs0,288(sp)
 1fc:	0300                	addi	s0,sp,384
 1fe:	3a0e                	fld	fs4,224(sp)
 200:	390b3b0b          	0x390b3b0b
 204:	3f13490b          	0x3f13490b
 208:	0219                	addi	tp,tp,6
 20a:	0018                	0x18
 20c:	1300                	addi	s0,sp,416
 20e:	0018                	0x18
 210:	0000                	unimp
 212:	0f14                	addi	a3,sp,912
 214:	0b00                	addi	s0,sp,400
 216:	1500000b          	0x1500000b
 21a:	002e                	c.slli	zero,0xb
 21c:	0e03193f 0b3b0b3a 	0xb3b0b3a0e03193f
 224:	0b39                	addi	s6,s6,14
 226:	01111927          	0x1111927
 22a:	0712                	slli	a4,a4,0x4
 22c:	1840                	addi	s0,sp,52
 22e:	197c                	addi	a5,sp,188
 230:	0000                	unimp
 232:	0516                	slli	a0,a0,0x5
 234:	0300                	addi	s0,sp,384
 236:	3a08                	fld	fa0,48(a2)
 238:	390b3b0b          	0x390b3b0b
 23c:	0213490b          	0x213490b
 240:	0018                	0x18
 242:	1700                	addi	s0,sp,928
 244:	0034                	addi	a3,sp,8
 246:	0b3a0e03          	lb	t3,179(s4)
 24a:	0b390b3b          	0xb390b3b
 24e:	1349                	addi	t1,t1,-14
 250:	1802                	slli	a6,a6,0x20
 252:	0000                	unimp
 254:	2e18                	fld	fa4,24(a2)
 256:	3f01                	addiw	t5,t5,-32
 258:	0319                	addi	t1,t1,6
 25a:	3a0e                	fld	fs4,224(sp)
 25c:	390b3b0b          	0x390b3b0b
 260:	1113490b          	0x1113490b
 264:	1201                	addi	tp,tp,-32
 266:	7c184007          	flq	ft0,1985(a6)
 26a:	0019                	c.nop	6
 26c:	0000                	unimp
 26e:	0d01                	addi	s10,s10,0
 270:	0300                	addi	s0,sp,384
 272:	3a0e                	fld	fs4,224(sp)
 274:	0221                	addi	tp,tp,8
 276:	0b390b3b          	0xb390b3b
 27a:	1349                	addi	t1,t1,-14
 27c:	0b38                	addi	a4,sp,408
 27e:	0000                	unimp
 280:	3402                	fld	fs0,32(sp)
 282:	0300                	addi	s0,sp,384
 284:	3a0e                	fld	fs4,224(sp)
 286:	0121                	addi	sp,sp,8
 288:	0b390b3b          	0xb390b3b
 28c:	1349                	addi	t1,t1,-14
 28e:	1802                	slli	a6,a6,0x20
 290:	0000                	unimp
 292:	03000d03          	lb	s10,48(zero) # 30 <BASE_ADDR-0x801fffd0>
 296:	3a08                	fld	fa0,48(a2)
 298:	0221                	addi	tp,tp,8
 29a:	21390b3b          	0x21390b3b
 29e:	490c                	lw	a1,16(a0)
 2a0:	000b3813          	sltiu	a6,s6,0
 2a4:	0400                	addi	s0,sp,512
 2a6:	0018                	0x18
 2a8:	0000                	unimp
 2aa:	3405                	addiw	s0,s0,-31
 2ac:	0300                	addi	s0,sp,384
 2ae:	3a08                	fld	fa0,48(a2)
 2b0:	0121                	addi	sp,sp,8
 2b2:	0b390b3b          	0xb390b3b
 2b6:	1349                	addi	t1,t1,-14
 2b8:	1802                	slli	a6,a6,0x20
 2ba:	0000                	unimp
 2bc:	2406                	fld	fs0,64(sp)
 2be:	0b00                	addi	s0,sp,400
 2c0:	030b3e0b          	0x30b3e0b
 2c4:	000e                	c.slli	zero,0x3
 2c6:	0700                	addi	s0,sp,896
 2c8:	0e030113          	addi	sp,t1,224
 2cc:	213a0b0b          	0x213a0b0b
 2d0:	3b02                	fld	fs6,32(sp)
 2d2:	0821390b          	0x821390b
 2d6:	1301                	addi	t1,t1,-32
 2d8:	0000                	unimp
 2da:	0f08                	addi	a0,sp,912
 2dc:	0b00                	addi	s0,sp,400
 2de:	0821                	addi	a6,a6,8
 2e0:	1349                	addi	t1,t1,-14
 2e2:	0000                	unimp
 2e4:	3409                	addiw	s0,s0,-30
 2e6:	0300                	addi	s0,sp,384
 2e8:	3a0e                	fld	fs4,224(sp)
 2ea:	0121                	addi	sp,sp,8
 2ec:	21390b3b          	0x21390b3b
 2f0:	4915                	li	s2,5
 2f2:	02193f13          	sltiu	t5,s2,33
 2f6:	0018                	0x18
 2f8:	0a00                	addi	s0,sp,272
 2fa:	0005                	c.nop	1
 2fc:	1349                	addi	t1,t1,-14
 2fe:	0000                	unimp
 300:	4901010b          	0x4901010b
 304:	00130113          	addi	sp,t1,1
 308:	0c00                	addi	s0,sp,528
 30a:	0021                	c.nop	8
 30c:	1349                	addi	t1,t1,-14
 30e:	00000b2f          	0xb2f
 312:	2e0d                	addiw	t3,t3,3
 314:	3f01                	addiw	t5,t5,-32
 316:	0319                	addi	t1,t1,6
 318:	3a0e                	fld	fs4,224(sp)
 31a:	390b3b0b          	0x390b3b0b
 31e:	0821                	addi	a6,a6,8
 320:	1349                	addi	t1,t1,-14
 322:	193c                	addi	a5,sp,184
 324:	1301                	addi	t1,t1,-32
 326:	0000                	unimp
 328:	2e0e                	fld	ft8,192(sp)
 32a:	3f01                	addiw	t5,t5,-32
 32c:	0319                	addi	t1,t1,6
 32e:	3a0e                	fld	fs4,224(sp)
 330:	0121                	addi	sp,sp,8
 332:	21390b3b          	0x21390b3b
 336:	2706                	fld	fa4,64(sp)
 338:	1119                	addi	sp,sp,-26
 33a:	1201                	addi	tp,tp,-32
 33c:	7c184007          	flq	ft0,1985(a6)
 340:	0119                	addi	sp,sp,6
 342:	0f000013          	li	zero,240
 346:	0111010b          	0x111010b
 34a:	0712                	slli	a4,a4,0x4
 34c:	0000                	unimp
 34e:	1110                	addi	a2,sp,160
 350:	2501                	sext.w	a0,a0
 352:	130e                	slli	t1,t1,0x23
 354:	1b1f030b          	0x1b1f030b
 358:	551f 1117 1001      	0x10011117551f
 35e:	11000017          	auipc	zero,0x11000
 362:	0016                	c.slli	zero,0x5
 364:	0b3a0e03          	lb	t3,179(s4)
 368:	0b390b3b          	0xb390b3b
 36c:	1349                	addi	t1,t1,-14
 36e:	0000                	unimp
 370:	2412                	fld	fs0,256(sp)
 372:	0b00                	addi	s0,sp,400
 374:	030b3e0b          	0x30b3e0b
 378:	0008                	0x8
 37a:	1300                	addi	s0,sp,416
 37c:	012e                	slli	sp,sp,0xb
 37e:	0e03193f 0b3b0b3a 	0xb3b0b3a0e03193f
 386:	0b39                	addi	s6,s6,14
 388:	193c1927          	0x193c1927
 38c:	1301                	addi	t1,t1,-32
 38e:	0000                	unimp
 390:	2e14                	fld	fa3,24(a2)
 392:	3f01                	addiw	t5,t5,-32
 394:	0319                	addi	t1,t1,6
 396:	3a0e                	fld	fs4,224(sp)
 398:	390b3b0b          	0x390b3b0b
 39c:	4919270b          	0x4919270b
 3a0:	01193c13          	sltiu	s8,s2,17
 3a4:	15000013          	li	zero,336
 3a8:	0026                	c.slli	zero,0x9
 3aa:	1349                	addi	t1,t1,-14
 3ac:	0000                	unimp
 3ae:	2e16                	fld	ft8,320(sp)
 3b0:	3f01                	addiw	t5,t5,-32
 3b2:	0319                	addi	t1,t1,6
 3b4:	3a0e                	fld	fs4,224(sp)
 3b6:	390b3b0b          	0x390b3b0b
 3ba:	01193c0b          	0x1193c0b
 3be:	17000013          	li	zero,368
 3c2:	012e                	slli	sp,sp,0xb
 3c4:	0e03193f 0b3b0b3a 	0xb3b0b3a0e03193f
 3cc:	0b39                	addi	s6,s6,14
 3ce:	0111                	addi	sp,sp,4
 3d0:	0712                	slli	a4,a4,0x4
 3d2:	1840                	addi	s0,sp,52
 3d4:	197c                	addi	a5,sp,188
 3d6:	1301                	addi	t1,t1,-32
 3d8:	0000                	unimp
 3da:	0b18                	addi	a4,sp,400
 3dc:	1101                	addi	sp,sp,-32
 3de:	1201                	addi	tp,tp,-32
 3e0:	00130107          	0x130107
 3e4:	1900                	addi	s0,sp,176
 3e6:	002e                	c.slli	zero,0xb
 3e8:	0e03193f 0b3b0b3a 	0xb3b0b3a0e03193f
 3f0:	0b39                	addi	s6,s6,14
 3f2:	01111927          	0x1111927
 3f6:	0712                	slli	a4,a4,0x4
 3f8:	1840                	addi	s0,sp,52
 3fa:	197c                	addi	a5,sp,188
 3fc:	0000                	unimp
 3fe:	051a                	slli	a0,a0,0x6
 400:	0300                	addi	s0,sp,384
 402:	3a0e                	fld	fs4,224(sp)
 404:	390b3b0b          	0x390b3b0b
 408:	0213490b          	0x213490b
 40c:	0018                	0x18
 40e:	1b00                	addi	s0,sp,432
 410:	012e                	slli	sp,sp,0xb
 412:	0e03193f 0b3b0b3a 	0xb3b0b3a0e03193f
 41a:	0b39                	addi	s6,s6,14
 41c:	0111                	addi	sp,sp,4
 41e:	0712                	slli	a4,a4,0x4
 420:	1840                	addi	s0,sp,52
 422:	197c                	addi	a5,sp,188
 424:	0000                	unimp
 426:	0100                	addi	s0,sp,128
 428:	0034                	addi	a3,sp,8
 42a:	213a0803          	lb	a6,531(s4)
 42e:	3b01                	addiw	s6,s6,-32
 430:	490b390b          	0x490b390b
 434:	00180213          	addi	tp,a6,1
 438:	0200                	addi	s0,sp,256
 43a:	0005                	c.nop	1
 43c:	213a0e03          	lb	t3,531(s4)
 440:	3b01                	addiw	s6,s6,-32
 442:	490b390b          	0x490b390b
 446:	00180213          	addi	tp,a6,1
 44a:	0300                	addi	s0,sp,384
 44c:	0024                	addi	s1,sp,8
 44e:	3e08210b          	0x3e08210b
 452:	000e030b          	0xe030b
 456:	0400                	addi	s0,sp,512
 458:	000d                	c.nop	3
 45a:	213a0e03          	lb	t3,531(s4)
 45e:	3b02                	fld	fs6,32(sp)
 460:	0721390b          	0x721390b
 464:	1349                	addi	t1,t1,-14
 466:	0b38                	addi	a4,sp,408
 468:	0000                	unimp
 46a:	0505                	addi	a0,a0,1
 46c:	0300                	addi	s0,sp,384
 46e:	3a08                	fld	fa0,48(a2)
 470:	0121                	addi	sp,sp,8
 472:	3905213b          	0x3905213b
 476:	0213490b          	0x213490b
 47a:	0018                	0x18
 47c:	0600                	addi	s0,sp,768
 47e:	0111                	addi	sp,sp,4
 480:	0e25                	addi	t3,t3,9
 482:	1f030b13          	addi	s6,t1,496
 486:	17551f1b          	0x17551f1b
 48a:	0111                	addi	sp,sp,4
 48c:	1710                	addi	a2,sp,928
 48e:	0000                	unimp
 490:	03001607          	0x3001607
 494:	3a0e                	fld	fs4,224(sp)
 496:	390b3b0b          	0x390b3b0b
 49a:	0013490b          	0x13490b
 49e:	0800                	addi	s0,sp,16
 4a0:	0e030113          	addi	sp,t1,224
 4a4:	0b3a0b0b          	0xb3a0b0b
 4a8:	0b390b3b          	0xb390b3b
 4ac:	1301                	addi	t1,t1,-32
 4ae:	0000                	unimp
 4b0:	2e09                	addiw	t3,t3,2
 4b2:	3f01                	addiw	t5,t5,-32
 4b4:	0319                	addi	t1,t1,6
 4b6:	3a0e                	fld	fs4,224(sp)
 4b8:	390b3b0b          	0x390b3b0b
 4bc:	4919270b          	0x4919270b
 4c0:	12011113          	0x12011113
 4c4:	7a184007          	flq	ft0,1953(a6)
 4c8:	0119                	addi	sp,sp,6
 4ca:	0a000013          	li	zero,160
 4ce:	0024                	addi	s1,sp,8
 4d0:	0b3e0b0b          	0xb3e0b0b
 4d4:	00000803          	lb	a6,0(zero) # 0 <BASE_ADDR-0x80200000>
 4d8:	0100                	addi	s0,sp,128
 4da:	0024                	addi	s1,sp,8
 4dc:	0b3e0b0b          	0xb3e0b0b
 4e0:	00000e03          	lb	t3,0(zero) # 0 <BASE_ADDR-0x80200000>
 4e4:	1802                	slli	a6,a6,0x20
 4e6:	0000                	unimp
 4e8:	0300                	addi	s0,sp,384
 4ea:	012e                	slli	sp,sp,0xb
 4ec:	0e03193f 0b3b0b3a 	0xb3b0b3a0e03193f
 4f4:	0b39                	addi	s6,s6,14
 4f6:	193c                	addi	a5,sp,184
 4f8:	1301                	addi	t1,t1,-32
 4fa:	0000                	unimp
 4fc:	0504                	addi	s1,sp,640
 4fe:	0300                	addi	s0,sp,384
 500:	3a0e                	fld	fs4,224(sp)
 502:	0121                	addi	sp,sp,8
 504:	3905213b          	0x3905213b
 508:	0213490b          	0x213490b
 50c:	0018                	0x18
 50e:	0500                	addi	s0,sp,640
 510:	0111                	addi	sp,sp,4
 512:	0e25                	addi	t3,t3,9
 514:	1f030b13          	addi	s6,t1,496
 518:	17551f1b          	0x17551f1b
 51c:	0111                	addi	sp,sp,4
 51e:	1710                	addi	a2,sp,928
 520:	0000                	unimp
 522:	2406                	fld	fs0,64(sp)
 524:	0b00                	addi	s0,sp,400
 526:	030b3e0b          	0x30b3e0b
 52a:	0008                	0x8
 52c:	0700                	addi	s0,sp,896
 52e:	012e                	slli	sp,sp,0xb
 530:	0e03193f 0b3b0b3a 	0xb3b0b3a0e03193f
 538:	0b39                	addi	s6,s6,14
 53a:	13491927          	0x13491927
 53e:	193c                	addi	a5,sp,184
 540:	1301                	addi	t1,t1,-32
 542:	0000                	unimp
 544:	0508                	addi	a0,sp,640
 546:	4900                	lw	s0,16(a0)
 548:	09000013          	li	zero,144
 54c:	0b0b000f          	0xb0b000f
 550:	1349                	addi	t1,t1,-14
 552:	0000                	unimp
 554:	260a                	fld	fa2,128(sp)
 556:	4900                	lw	s0,16(a0)
 558:	0b000013          	li	zero,176
 55c:	012e                	slli	sp,sp,0xb
 55e:	0e03193f 0b3b0b3a 	0xb3b0b3a0e03193f
 566:	0b39                	addi	s6,s6,14
 568:	01111927          	0x1111927
 56c:	0712                	slli	a4,a4,0x4
 56e:	1840                	addi	s0,sp,52
 570:	197c                	addi	a5,sp,188
 572:	0000                	unimp
 574:	0100                	addi	s0,sp,128
 576:	0034                	addi	a3,sp,8
 578:	213a0e03          	lb	t3,531(s4)
 57c:	3b01                	addiw	s6,s6,-32
 57e:	490b390b          	0x490b390b
 582:	00180213          	addi	tp,a6,1
 586:	0200                	addi	s0,sp,256
 588:	000d                	c.nop	3
 58a:	213a0803          	lb	a6,531(s4)
 58e:	3b01                	addiw	s6,s6,-32
 590:	490b390b          	0x490b390b
 594:	6b0b0d13          	addi	s10,s6,1712
 598:	0300000b          	0x300000b
 59c:	000d                	c.nop	3
 59e:	213a0e03          	lb	t3,531(s4)
 5a2:	3b01                	addiw	s6,s6,-32
 5a4:	490b390b          	0x490b390b
 5a8:	6b0b0d13          	addi	s10,s6,1712
 5ac:	0400000b          	0x400000b
 5b0:	0034                	addi	a3,sp,8
 5b2:	213a0803          	lb	a6,531(s4)
 5b6:	3b01                	addiw	s6,s6,-32
 5b8:	490b390b          	0x490b390b
 5bc:	00180213          	addi	tp,a6,1
 5c0:	0500                	addi	s0,sp,640
 5c2:	0034                	addi	a3,sp,8
 5c4:	213a0e03          	lb	t3,531(s4)
 5c8:	3b01                	addiw	s6,s6,-32
 5ca:	0f21390b          	0xf21390b
 5ce:	1349                	addi	t1,t1,-14
 5d0:	193c193f 05060000 	0x5060000193c193f
 5d8:	0300                	addi	s0,sp,384
 5da:	3a0e                	fld	fs4,224(sp)
 5dc:	0121                	addi	sp,sp,8
 5de:	0b390b3b          	0xb390b3b
 5e2:	1349                	addi	t1,t1,-14
 5e4:	1802                	slli	a6,a6,0x20
 5e6:	0000                	unimp
 5e8:	0b002407          	flw	fs0,176(zero) # b0 <BASE_ADDR-0x801fff50>
 5ec:	030b3e0b          	0x30b3e0b
 5f0:	000e                	c.slli	zero,0x3
 5f2:	0800                	addi	s0,sp,16
 5f4:	0005                	c.nop	1
 5f6:	213a0803          	lb	a6,531(s4)
 5fa:	3b01                	addiw	s6,s6,-32
 5fc:	490b390b          	0x490b390b
 600:	00180213          	addi	tp,a6,1
 604:	0900                	addi	s0,sp,144
 606:	0e030113          	addi	sp,t1,224
 60a:	213a0b0b          	0x213a0b0b
 60e:	3b01                	addiw	s6,s6,-32
 610:	0821390b          	0x821390b
 614:	1301                	addi	t1,t1,-32
 616:	0000                	unimp
 618:	050a                	slli	a0,a0,0x2
 61a:	4900                	lw	s0,16(a0)
 61c:	0b000013          	li	zero,176
 620:	210b000f          	0x210b000f
 624:	4908                	lw	a0,16(a0)
 626:	0c000013          	li	zero,192
 62a:	012e                	slli	sp,sp,0xb
 62c:	0e03193f 3b01213a 	0x3b01213a0e03193f
 634:	0621390b          	0x621390b
 638:	01111927          	0x1111927
 63c:	0712                	slli	a4,a4,0x4
 63e:	1840                	addi	s0,sp,52
 640:	197c                	addi	a5,sp,188
 642:	1301                	addi	t1,t1,-32
 644:	0000                	unimp
 646:	0b0d                	addi	s6,s6,3
 648:	1101                	addi	sp,sp,-32
 64a:	1201                	addi	tp,tp,-32
 64c:	0e000007          	0xe000007
 650:	0034                	addi	a3,sp,8
 652:	213a0e03          	lb	t3,531(s4)
 656:	3b01                	addiw	s6,s6,-32
 658:	490b390b          	0x490b390b
 65c:	88193f13          	sltiu	t5,s2,-1919
 660:	2101                	sext.w	sp,sp
 662:	2080                	fld	fs0,0(s1)
 664:	1802                	slli	a6,a6,0x20
 666:	0000                	unimp
 668:	0000180f          	0x180f
 66c:	1000                	addi	s0,sp,32
 66e:	012e                	slli	sp,sp,0xb
 670:	0e03193f 213b0b3a 	0x213b0b3a0e03193f
 678:	3905                	addiw	s2,s2,-31
 67a:	4919270b          	0x4919270b
 67e:	01193c13          	sltiu	s8,s2,17
 682:	11000013          	li	zero,272
 686:	012e                	slli	sp,sp,0xb
 688:	0e03193f 3b01213a 	0x3b01213a0e03193f
 690:	0921390b          	0x921390b
 694:	13491927          	0x13491927
 698:	0111                	addi	sp,sp,4
 69a:	0712                	slli	a4,a4,0x4
 69c:	1840                	addi	s0,sp,52
 69e:	197c                	addi	a5,sp,188
 6a0:	1301                	addi	t1,t1,-32
 6a2:	0000                	unimp
 6a4:	1112                	slli	sp,sp,0x24
 6a6:	2501                	sext.w	a0,a0
 6a8:	130e                	slli	t1,t1,0x23
 6aa:	1b1f030b          	0x1b1f030b
 6ae:	551f 1117 1001      	0x10011117551f
 6b4:	13000017          	auipc	zero,0x13000
 6b8:	0016                	c.slli	zero,0x5
 6ba:	0b3a0e03          	lb	t3,179(s4)
 6be:	0b390b3b          	0xb390b3b
 6c2:	1349                	addi	t1,t1,-14
 6c4:	0000                	unimp
 6c6:	2414                	fld	fa3,8(s0)
 6c8:	0b00                	addi	s0,sp,400
 6ca:	030b3e0b          	0x30b3e0b
 6ce:	0008                	0x8
 6d0:	1500                	addi	s0,sp,672
 6d2:	0101                	addi	sp,sp,0
 6d4:	1349                	addi	t1,t1,-14
 6d6:	1301                	addi	t1,t1,-32
 6d8:	0000                	unimp
 6da:	2116                	fld	ft2,320(sp)
 6dc:	4900                	lw	s0,16(a0)
 6de:	00052f13          	slti	t5,a0,0
 6e2:	1700                	addi	s0,sp,928
 6e4:	012e                	slli	sp,sp,0xb
 6e6:	0e03193f 0b3b0b3a 	0xb3b0b3a0e03193f
 6ee:	0b39                	addi	s6,s6,14
 6f0:	1349                	addi	t1,t1,-14
 6f2:	193c                	addi	a5,sp,184
 6f4:	1301                	addi	t1,t1,-32
 6f6:	0000                	unimp
 6f8:	2618                	fld	fa4,8(a2)
 6fa:	4900                	lw	s0,16(a0)
 6fc:	19000013          	li	zero,400
 700:	0b0b000f          	0xb0b000f
 704:	0000                	unimp
 706:	341a                	fld	fs0,416(sp)
 708:	0300                	addi	s0,sp,384
 70a:	3a0e                	fld	fs4,224(sp)
 70c:	390b3b0b          	0x390b3b0b
 710:	0013490b          	0x13490b
 714:	1b00                	addi	s0,sp,432
 716:	0111010b          	0x111010b
 71a:	0712                	slli	a4,a4,0x4
 71c:	1301                	addi	t1,t1,-32
 71e:	0000                	unimp
 720:	0100                	addi	s0,sp,128
 722:	0024                	addi	s1,sp,8
 724:	0b3e0b0b          	0xb3e0b0b
 728:	00000e03          	lb	t3,0(zero) # 0 <BASE_ADDR-0x80200000>
 72c:	1802                	slli	a6,a6,0x20
 72e:	0000                	unimp
 730:	0300                	addi	s0,sp,384
 732:	0111                	addi	sp,sp,4
 734:	0e25                	addi	t3,t3,9
 736:	1f030b13          	addi	s6,t1,496
 73a:	17551f1b          	0x17551f1b
 73e:	0111                	addi	sp,sp,4
 740:	1710                	addi	a2,sp,928
 742:	0000                	unimp
 744:	2404                	fld	fs1,8(s0)
 746:	0b00                	addi	s0,sp,400
 748:	030b3e0b          	0x30b3e0b
 74c:	0008                	0x8
 74e:	0500                	addi	s0,sp,640
 750:	012e                	slli	sp,sp,0xb
 752:	0e03193f 0b3b0b3a 	0xb3b0b3a0e03193f
 75a:	0b39                	addi	s6,s6,14
 75c:	193c                	addi	a5,sp,184
 75e:	1301                	addi	t1,t1,-32
 760:	0000                	unimp
 762:	2e06                	fld	ft8,64(sp)
 764:	3f01                	addiw	t5,t5,-32
 766:	0319                	addi	t1,t1,6
 768:	3a0e                	fld	fs4,224(sp)
 76a:	390b3b0b          	0x390b3b0b
 76e:	4919270b          	0x4919270b
 772:	01193c13          	sltiu	s8,s2,17
 776:	07000013          	li	zero,112
 77a:	0005                	c.nop	1
 77c:	1349                	addi	t1,t1,-14
 77e:	0000                	unimp
 780:	0f08                	addi	a0,sp,912
 782:	0b00                	addi	s0,sp,400
 784:	0013490b          	0x13490b
 788:	0900                	addi	s0,sp,144
 78a:	0026                	c.slli	zero,0x9
 78c:	1349                	addi	t1,t1,-14
 78e:	0000                	unimp
 790:	2e0a                	fld	ft8,128(sp)
 792:	3f00                	fld	fs0,56(a4)
 794:	0319                	addi	t1,t1,6
 796:	3a0e                	fld	fs4,224(sp)
 798:	390b3b0b          	0x390b3b0b
 79c:	1113490b          	0x1113490b
 7a0:	1201                	addi	tp,tp,-32
 7a2:	7c184007          	flq	ft0,1985(a6)
 7a6:	0019                	c.nop	6
 7a8:	0000                	unimp
 7aa:	2401                	sext.w	s0,s0
 7ac:	0b00                	addi	s0,sp,400
 7ae:	030b3e0b          	0x30b3e0b
 7b2:	000e                	c.slli	zero,0x3
 7b4:	0200                	addi	s0,sp,256
 7b6:	0111                	addi	sp,sp,4
 7b8:	0e25                	addi	t3,t3,9
 7ba:	1f030b13          	addi	s6,t1,496
 7be:	17551f1b          	0x17551f1b
 7c2:	0111                	addi	sp,sp,4
 7c4:	1710                	addi	a2,sp,928
 7c6:	0000                	unimp
 7c8:	0b002403          	lw	s0,176(zero) # b0 <BASE_ADDR-0x801fff50>
 7cc:	030b3e0b          	0x30b3e0b
 7d0:	0008                	0x8
 7d2:	0400                	addi	s0,sp,512
 7d4:	012e                	slli	sp,sp,0xb
 7d6:	0e03193f 0b3b0b3a 	0xb3b0b3a0e03193f
 7de:	0b39                	addi	s6,s6,14
 7e0:	13491927          	0x13491927
 7e4:	193c                	addi	a5,sp,184
 7e6:	1301                	addi	t1,t1,-32
 7e8:	0000                	unimp
 7ea:	0505                	addi	a0,a0,1
 7ec:	4900                	lw	s0,16(a0)
 7ee:	06000013          	li	zero,96
 7f2:	0018                	0x18
 7f4:	0000                	unimp
 7f6:	0b000f07          	0xb000f07
 7fa:	0013490b          	0x13490b
 7fe:	0800                	addi	s0,sp,16
 800:	0026                	c.slli	zero,0x9
 802:	1349                	addi	t1,t1,-14
 804:	0000                	unimp
 806:	2e09                	addiw	t3,t3,2
 808:	3f01                	addiw	t5,t5,-32
 80a:	0319                	addi	t1,t1,6
 80c:	3a0e                	fld	fs4,224(sp)
 80e:	390b3b0b          	0x390b3b0b
 812:	1201110b          	0x1201110b
 816:	7c184007          	flq	ft0,1985(a6)
 81a:	0019                	c.nop	6
 81c:	0a00                	addi	s0,sp,272
 81e:	0034                	addi	a3,sp,8
 820:	0b3a0803          	lb	a6,179(s4)
 824:	0b390b3b          	0xb390b3b
 828:	1349                	addi	t1,t1,-14
 82a:	1802                	slli	a6,a6,0x20
 82c:	0000                	unimp
 82e:	0100                	addi	s0,sp,128
 830:	0005                	c.nop	1
 832:	1349                	addi	t1,t1,-14
 834:	0000                	unimp
 836:	2402                	fld	fs0,0(sp)
 838:	0b00                	addi	s0,sp,400
 83a:	030b3e0b          	0x30b3e0b
 83e:	000e                	c.slli	zero,0x3
 840:	0300                	addi	s0,sp,384
 842:	000d                	c.nop	3
 844:	213a0e03          	lb	t3,531(s4)
 848:	3b02                	fld	fs6,32(sp)
 84a:	0721390b          	0x721390b
 84e:	1349                	addi	t1,t1,-14
 850:	0b38                	addi	a4,sp,408
 852:	0000                	unimp
 854:	2e04                	fld	fs1,24(a2)
 856:	3f01                	addiw	t5,t5,-32
 858:	0319                	addi	t1,t1,6
 85a:	3a0e                	fld	fs4,224(sp)
 85c:	0121                	addi	sp,sp,8
 85e:	21390b3b          	0x21390b3b
 862:	2706                	fld	fa4,64(sp)
 864:	1119                	addi	sp,sp,-26
 866:	1201                	addi	tp,tp,-32
 868:	7c184007          	flq	ft0,1985(a6)
 86c:	0119                	addi	sp,sp,6
 86e:	05000013          	li	zero,80
 872:	0005                	c.nop	1
 874:	213a0803          	lb	a6,531(s4)
 878:	3b01                	addiw	s6,s6,-32
 87a:	490b390b          	0x490b390b
 87e:	00180213          	addi	tp,a6,1
 882:	0600                	addi	s0,sp,768
 884:	0034                	addi	a3,sp,8
 886:	213a0803          	lb	a6,531(s4)
 88a:	3b01                	addiw	s6,s6,-32
 88c:	490b390b          	0x490b390b
 890:	00180213          	addi	tp,a6,1
 894:	0700                	addi	s0,sp,896
 896:	0111                	addi	sp,sp,4
 898:	0e25                	addi	t3,t3,9
 89a:	1f030b13          	addi	s6,t1,496
 89e:	17551f1b          	0x17551f1b
 8a2:	0111                	addi	sp,sp,4
 8a4:	1710                	addi	a2,sp,928
 8a6:	0000                	unimp
 8a8:	1608                	addi	a0,sp,800
 8aa:	0300                	addi	s0,sp,384
 8ac:	3a0e                	fld	fs4,224(sp)
 8ae:	390b3b0b          	0x390b3b0b
 8b2:	0013490b          	0x13490b
 8b6:	0900                	addi	s0,sp,144
 8b8:	0e030113          	addi	sp,t1,224
 8bc:	0b3a0b0b          	0xb3a0b0b
 8c0:	0b390b3b          	0xb390b3b
 8c4:	1301                	addi	t1,t1,-32
 8c6:	0000                	unimp
 8c8:	2e0a                	fld	ft8,128(sp)
 8ca:	3f01                	addiw	t5,t5,-32
 8cc:	0319                	addi	t1,t1,6
 8ce:	3a0e                	fld	fs4,224(sp)
 8d0:	390b3b0b          	0x390b3b0b
 8d4:	4919270b          	0x4919270b
 8d8:	01193c13          	sltiu	s8,s2,17
 8dc:	0b000013          	li	zero,176
 8e0:	0024                	addi	s1,sp,8
 8e2:	0b3e0b0b          	0xb3e0b0b
 8e6:	00000803          	lb	a6,0(zero) # 0 <BASE_ADDR-0x80200000>
 8ea:	010c                	addi	a1,sp,128
 8ec:	4901                	li	s2,0
 8ee:	00130113          	addi	sp,t1,1
 8f2:	0d00                	addi	s0,sp,656
 8f4:	0021                	c.nop	8
 8f6:	1349                	addi	t1,t1,-14
 8f8:	00000b2f          	0xb2f
 8fc:	0f0e                	slli	t5,t5,0x3
 8fe:	0b00                	addi	s0,sp,400
 900:	0013490b          	0x13490b
 904:	0000                	unimp
 906:	3401                	addiw	s0,s0,-32
 908:	0300                	addi	s0,sp,384
 90a:	3a08                	fld	fa0,48(a2)
 90c:	0121                	addi	sp,sp,8
 90e:	0b390b3b          	0xb390b3b
 912:	1349                	addi	t1,t1,-14
 914:	1802                	slli	a6,a6,0x20
 916:	0000                	unimp
 918:	0502                	c.slli64	a0
 91a:	4900                	lw	s0,16(a0)
 91c:	03000013          	li	zero,48
 920:	0034                	addi	a3,sp,8
 922:	213a0e03          	lb	t3,531(s4)
 926:	3b01                	addiw	s6,s6,-32
 928:	490b390b          	0x490b390b
 92c:	00180213          	addi	tp,a6,1
 930:	0400                	addi	s0,sp,512
 932:	0111010b          	0x111010b
 936:	0712                	slli	a4,a4,0x4
 938:	1301                	addi	t1,t1,-32
 93a:	0000                	unimp
 93c:	0b05                	addi	s6,s6,1
 93e:	1101                	addi	sp,sp,-32
 940:	1201                	addi	tp,tp,-32
 942:	06000007          	0x6000007
 946:	0005                	c.nop	1
 948:	213a0803          	lb	a6,531(s4)
 94c:	3b01                	addiw	s6,s6,-32
 94e:	490b390b          	0x490b390b
 952:	00180213          	addi	tp,a6,1
 956:	0700                	addi	s0,sp,896
 958:	0024                	addi	s1,sp,8
 95a:	0b3e0b0b          	0xb3e0b0b
 95e:	00000e03          	lb	t3,0(zero) # 0 <BASE_ADDR-0x80200000>
 962:	1608                	addi	a0,sp,800
 964:	0300                	addi	s0,sp,384
 966:	3a0e                	fld	fs4,224(sp)
 968:	390b3b0b          	0x390b3b0b
 96c:	0013490b          	0x13490b
 970:	0900                	addi	s0,sp,144
 972:	000d                	c.nop	3
 974:	213a0e03          	lb	t3,531(s4)
 978:	3b04                	fld	fs1,48(a4)
 97a:	0721390b          	0x721390b
 97e:	1349                	addi	t1,t1,-14
 980:	0b38                	addi	a4,sp,408
 982:	0000                	unimp
 984:	0f0a                	slli	t5,t5,0x2
 986:	0b00                	addi	s0,sp,400
 988:	0821                	addi	a6,a6,8
 98a:	1349                	addi	t1,t1,-14
 98c:	0000                	unimp
 98e:	2501110b          	0x2501110b
 992:	130e                	slli	t1,t1,0x23
 994:	1b1f030b          	0x1b1f030b
 998:	551f 1117 1001      	0x10011117551f
 99e:	0c000017          	auipc	zero,0xc000
 9a2:	0024                	addi	s1,sp,8
 9a4:	0b3e0b0b          	0xb3e0b0b
 9a8:	00000803          	lb	a6,0(zero) # 0 <BASE_ADDR-0x80200000>
 9ac:	0f0d                	addi	t5,t5,3
 9ae:	0b00                	addi	s0,sp,400
 9b0:	000e030b          	0xe030b
 9b4:	0e00                	addi	s0,sp,784
 9b6:	0e030113          	addi	sp,t1,224
 9ba:	0b3a0b0b          	0xb3a0b0b
 9be:	0b390b3b          	0xb390b3b
 9c2:	1301                	addi	t1,t1,-32
 9c4:	0000                	unimp
 9c6:	3f012e0f          	0x3f012e0f
 9ca:	0319                	addi	t1,t1,6
 9cc:	3a0e                	fld	fs4,224(sp)
 9ce:	390b3b0b          	0x390b3b0b
 9d2:	4919270b          	0x4919270b
 9d6:	01193c13          	sltiu	s8,s2,17
 9da:	10000013          	li	zero,256
 9de:	012e                	slli	sp,sp,0xb
 9e0:	0e03193f 0b3b0b3a 	0xb3b0b3a0e03193f
 9e8:	0b39                	addi	s6,s6,14
 9ea:	13491927          	0x13491927
 9ee:	0111                	addi	sp,sp,4
 9f0:	0712                	slli	a4,a4,0x4
 9f2:	1840                	addi	s0,sp,52
 9f4:	197c                	addi	a5,sp,188
 9f6:	1301                	addi	t1,t1,-32
 9f8:	0000                	unimp
 9fa:	1811                	addi	a6,a6,-28
 9fc:	0000                	unimp
 9fe:	1200                	addi	s0,sp,288
 a00:	0026                	c.slli	zero,0x9
 a02:	1349                	addi	t1,t1,-14
 a04:	0000                	unimp
 a06:	03012e13          	slti	t3,sp,48
 a0a:	3a0e                	fld	fs4,224(sp)
 a0c:	390b3b0b          	0x390b3b0b
 a10:	4919270b          	0x4919270b
 a14:	12011113          	0x12011113
 a18:	7c184007          	flq	ft0,1985(a6)
 a1c:	0119                	addi	sp,sp,6
 a1e:	14000013          	li	zero,320
 a22:	0005                	c.nop	1
 a24:	0b3a0e03          	lb	t3,179(s4)
 a28:	0b390b3b          	0xb390b3b
 a2c:	1349                	addi	t1,t1,-14
 a2e:	1802                	slli	a6,a6,0x20
 a30:	0000                	unimp
 a32:	1515                	addi	a0,a0,-27
 a34:	2701                	sext.w	a4,a4
 a36:	0119                	addi	sp,sp,6
 a38:	16000013          	li	zero,352
 a3c:	0101                	addi	sp,sp,0
 a3e:	1349                	addi	t1,t1,-14
 a40:	1301                	addi	t1,t1,-32
 a42:	0000                	unimp
 a44:	49002117          	auipc	sp,0x49002
 a48:	000b2f13          	slti	t5,s6,0
 a4c:	1800                	addi	s0,sp,48
 a4e:	012e                	slli	sp,sp,0xb
 a50:	0e03193f 0b3b0b3a 	0xb3b0b3a0e03193f
 a58:	0b39                	addi	s6,s6,14
 a5a:	01111927          	0x1111927
 a5e:	0712                	slli	a4,a4,0x4
 a60:	1840                	addi	s0,sp,52
 a62:	197c                	addi	a5,sp,188
 a64:	0000                	unimp
 a66:	0100                	addi	s0,sp,128
 a68:	0034                	addi	a3,sp,8
 a6a:	213a0803          	lb	a6,531(s4)
 a6e:	3b01                	addiw	s6,s6,-32
 a70:	0521390b          	0x521390b
 a74:	1349                	addi	t1,t1,-14
 a76:	1802193f 11020000 	0x110200001802193f
 a7e:	2501                	sext.w	a0,a0
 a80:	130e                	slli	t1,t1,0x23
 a82:	1b1f030b          	0x1b1f030b
 a86:	551f 1117 1001      	0x10011117551f
 a8c:	03000017          	auipc	zero,0x3000
 a90:	0016                	c.slli	zero,0x5
 a92:	0b3a0e03          	lb	t3,179(s4)
 a96:	0b390b3b          	0xb390b3b
 a9a:	1349                	addi	t1,t1,-14
 a9c:	0000                	unimp
 a9e:	2404                	fld	fs1,8(s0)
 aa0:	0b00                	addi	s0,sp,400
 aa2:	030b3e0b          	0x30b3e0b
 aa6:	000e                	c.slli	zero,0x3
 aa8:	0500                	addi	s0,sp,640
 aaa:	0034                	addi	a3,sp,8
 aac:	0b3a0e03          	lb	t3,179(s4)
 ab0:	0b390b3b          	0xb390b3b
 ab4:	1349                	addi	t1,t1,-14
 ab6:	1802193f 24060000 	0x240600001802193f
 abe:	0b00                	addi	s0,sp,400
 ac0:	030b3e0b          	0x30b3e0b
 ac4:	0008                	0x8
 ac6:	0700                	addi	s0,sp,896
 ac8:	0101                	addi	sp,sp,0
 aca:	1349                	addi	t1,t1,-14
 acc:	1301                	addi	t1,t1,-32
 ace:	0000                	unimp
 ad0:	2108                	fld	fa0,0(a0)
 ad2:	4900                	lw	s0,16(a0)
 ad4:	00052f13          	slti	t5,a0,0
 ad8:	0900                	addi	s0,sp,144
 ada:	012e                	slli	sp,sp,0xb
 adc:	0e03193f 0b3b0b3a 	0xb3b0b3a0e03193f
 ae4:	0b39                	addi	s6,s6,14
 ae6:	1349                	addi	t1,t1,-14
 ae8:	0111                	addi	sp,sp,4
 aea:	0712                	slli	a4,a4,0x4
 aec:	1840                	addi	s0,sp,52
 aee:	197a                	slli	s2,s2,0x3e
 af0:	0000                	unimp
 af2:	340a                	fld	fs0,160(sp)
 af4:	0300                	addi	s0,sp,384
 af6:	3a08                	fld	fa0,48(a2)
 af8:	390b3b0b          	0x390b3b0b
 afc:	0213490b          	0x213490b
 b00:	0018                	0x18
 b02:	0000                	unimp
 b04:	0501                	addi	a0,a0,0
 b06:	0300                	addi	s0,sp,384
 b08:	3a08                	fld	fa0,48(a2)
 b0a:	0121                	addi	sp,sp,8
 b0c:	3903213b          	0x3903213b
 b10:	0213490b          	0x213490b
 b14:	0018                	0x18
 b16:	0200                	addi	s0,sp,256
 b18:	0024                	addi	s1,sp,8
 b1a:	0b3e0b0b          	0xb3e0b0b
 b1e:	00000e03          	lb	t3,0(zero) # 0 <BASE_ADDR-0x80200000>
 b22:	25011103          	lh	sp,592(sp) # 49002c94 <BASE_ADDR-0x371fd36c>
 b26:	130e                	slli	t1,t1,0x23
 b28:	1b1f030b          	0x1b1f030b
 b2c:	551f 1117 1001      	0x10011117551f
 b32:	04000017          	auipc	zero,0x4000
 b36:	0016                	c.slli	zero,0x5
 b38:	0b3a0e03          	lb	t3,179(s4)
 b3c:	0b390b3b          	0xb390b3b
 b40:	1349                	addi	t1,t1,-14
 b42:	0000                	unimp
 b44:	2e05                	addiw	t3,t3,1
 b46:	3f01                	addiw	t5,t5,-32
 b48:	0319                	addi	t1,t1,6
 b4a:	3a0e                	fld	fs4,224(sp)
 b4c:	390b3b0b          	0x390b3b0b
 b50:	4919270b          	0x4919270b
 b54:	12011113          	0x12011113
 b58:	7a184007          	flq	ft0,1953(a6)
 b5c:	0119                	addi	sp,sp,6
 b5e:	06000013          	li	zero,96
 b62:	0034                	addi	a3,sp,8
 b64:	0b3a0e03          	lb	t3,179(s4)
 b68:	0b390b3b          	0xb390b3b
 b6c:	1349                	addi	t1,t1,-14
 b6e:	1802                	slli	a6,a6,0x20
 b70:	0000                	unimp
 b72:	11010b07          	0x11010b07
 b76:	1201                	addi	tp,tp,-32
 b78:	08000007          	0x8000007
 b7c:	0034                	addi	a3,sp,8
 b7e:	0b3a0803          	lb	a6,179(s4)
 b82:	0b390b3b          	0xb390b3b
 b86:	1349                	addi	t1,t1,-14
 b88:	1802                	slli	a6,a6,0x20
 b8a:	0000                	unimp
 b8c:	0f09                	addi	t5,t5,2
 b8e:	0b00                	addi	s0,sp,400
 b90:	0a00000b          	0xa00000b
 b94:	0024                	addi	s1,sp,8
 b96:	0b3e0b0b          	0xb3e0b0b
 b9a:	00000803          	lb	a6,0(zero) # 0 <BASE_ADDR-0x80200000>
 b9e:	0b000f0b          	0xb000f0b
 ba2:	0013490b          	0x13490b
	...

Disassembly of section .debug_aranges:

0000000000000000 <.debug_aranges>:
   0:	003c                	addi	a5,sp,8
   2:	0000                	unimp
   4:	0002                	c.slli64	zero
   6:	0000                	unimp
   8:	0000                	unimp
   a:	0008                	0x8
   c:	0000                	unimp
   e:	0000                	unimp
  10:	0408                	addi	a0,sp,512
  12:	0020                	addi	s0,sp,8
  14:	ffe0                	sd	s0,248(a5)
  16:	ffff                	0xffff
  18:	0028                	addi	a0,sp,8
  1a:	0000                	unimp
  1c:	0000                	unimp
  1e:	0000                	unimp
  20:	0430                	addi	a2,sp,520
  22:	0020                	addi	s0,sp,8
  24:	ffe0                	sd	s0,248(a5)
  26:	ffff                	0xffff
  28:	0064                	addi	s1,sp,12
	...
  3e:	0000                	unimp
  40:	002c                	addi	a1,sp,8
  42:	0000                	unimp
  44:	0002                	c.slli64	zero
  46:	0115                	addi	sp,sp,5
  48:	0000                	unimp
  4a:	0008                	0x8
  4c:	0000                	unimp
  4e:	0000                	unimp
  50:	0124                	addi	s1,sp,136
  52:	0020                	addi	s0,sp,8
  54:	ffe0                	sd	s0,248(a5)
  56:	ffff                	0xffff
  58:	02e4                	addi	s1,sp,332
	...
  6e:	0000                	unimp
  70:	002c                	addi	a1,sp,8
  72:	0000                	unimp
  74:	0002                	c.slli64	zero
  76:	013e                	slli	sp,sp,0xf
  78:	0000                	unimp
  7a:	0008                	0x8
  7c:	0000                	unimp
  7e:	0000                	unimp
  80:	0000                	unimp
  82:	0020                	addi	s0,sp,8
  84:	ffe0                	sd	s0,248(a5)
  86:	ffff                	0xffff
  88:	0124                	addi	s1,sp,136
	...
  9e:	0000                	unimp
  a0:	005c                	addi	a5,sp,4
  a2:	0000                	unimp
  a4:	0002                	c.slli64	zero
  a6:	00000167          	jalr	sp,zero # 0 <BASE_ADDR-0x80200000>
  aa:	0008                	0x8
  ac:	0000                	unimp
  ae:	0000                	unimp
  b0:	0494                	addi	a3,sp,576
  b2:	0020                	addi	s0,sp,8
  b4:	ffe0                	sd	s0,248(a5)
  b6:	ffff                	0xffff
  b8:	005c                	addi	a5,sp,4
  ba:	0000                	unimp
  bc:	0000                	unimp
  be:	0000                	unimp
  c0:	04f0                	addi	a2,sp,588
  c2:	0020                	addi	s0,sp,8
  c4:	ffe0                	sd	s0,248(a5)
  c6:	ffff                	0xffff
  c8:	0078                	addi	a4,sp,12
  ca:	0000                	unimp
  cc:	0000                	unimp
  ce:	0000                	unimp
  d0:	0568                	addi	a0,sp,652
  d2:	0020                	addi	s0,sp,8
  d4:	ffe0                	sd	s0,248(a5)
  d6:	ffff                	0xffff
  d8:	0080                	addi	s0,sp,64
  da:	0000                	unimp
  dc:	0000                	unimp
  de:	0000                	unimp
  e0:	05e8                	addi	a0,sp,716
  e2:	0020                	addi	s0,sp,8
  e4:	ffe0                	sd	s0,248(a5)
  e6:	ffff                	0xffff
  e8:	0044                	addi	s1,sp,4
	...
  fe:	0000                	unimp
 100:	006c                	addi	a1,sp,12
 102:	0000                	unimp
 104:	0002                	c.slli64	zero
 106:	00000323          	sb	zero,6(zero) # 6 <BASE_ADDR-0x801ffffa>
 10a:	0008                	0x8
 10c:	0000                	unimp
 10e:	0000                	unimp
 110:	062c                	addi	a1,sp,776
 112:	0020                	addi	s0,sp,8
 114:	ffe0                	sd	s0,248(a5)
 116:	ffff                	0xffff
 118:	01ec                	addi	a1,sp,204
 11a:	0000                	unimp
 11c:	0000                	unimp
 11e:	0000                	unimp
 120:	0818                	addi	a4,sp,16
 122:	0020                	addi	s0,sp,8
 124:	ffe0                	sd	s0,248(a5)
 126:	ffff                	0xffff
 128:	0068                	addi	a0,sp,12
 12a:	0000                	unimp
 12c:	0000                	unimp
 12e:	0000                	unimp
 130:	0880                	addi	s0,sp,80
 132:	0020                	addi	s0,sp,8
 134:	ffe0                	sd	s0,248(a5)
 136:	ffff                	0xffff
 138:	007c                	addi	a5,sp,12
 13a:	0000                	unimp
 13c:	0000                	unimp
 13e:	0000                	unimp
 140:	08fc                	addi	a5,sp,92
 142:	0020                	addi	s0,sp,8
 144:	ffe0                	sd	s0,248(a5)
 146:	ffff                	0xffff
 148:	0220                	addi	s0,sp,264
 14a:	0000                	unimp
 14c:	0000                	unimp
 14e:	0000                	unimp
 150:	0b1c                	addi	a5,sp,400
 152:	0020                	addi	s0,sp,8
 154:	ffe0                	sd	s0,248(a5)
 156:	ffff                	0xffff
 158:	00a0                	addi	s0,sp,72
	...
 16e:	0000                	unimp
 170:	002c                	addi	a1,sp,8
 172:	0000                	unimp
 174:	0002                	c.slli64	zero
 176:	00000633          	add	a2,zero,zero
 17a:	0008                	0x8
 17c:	0000                	unimp
 17e:	0000                	unimp
 180:	0bbc                	addi	a5,sp,472
 182:	0020                	addi	s0,sp,8
 184:	ffe0                	sd	s0,248(a5)
 186:	ffff                	0xffff
 188:	0078                	addi	a4,sp,12
	...
 19e:	0000                	unimp
 1a0:	002c                	addi	a1,sp,8
 1a2:	0000                	unimp
 1a4:	0002                	c.slli64	zero
 1a6:	000007a3          	sb	zero,15(zero) # f <BASE_ADDR-0x801ffff1>
 1aa:	0008                	0x8
 1ac:	0000                	unimp
 1ae:	0000                	unimp
 1b0:	0c34                	addi	a3,sp,536
 1b2:	0020                	addi	s0,sp,8
 1b4:	ffe0                	sd	s0,248(a5)
 1b6:	ffff                	0xffff
 1b8:	0070                	addi	a2,sp,12
	...
 1ce:	0000                	unimp
 1d0:	006c                	addi	a1,sp,12
 1d2:	0000                	unimp
 1d4:	0002                	c.slli64	zero
 1d6:	085d                	addi	a6,a6,23
 1d8:	0000                	unimp
 1da:	0008                	0x8
 1dc:	0000                	unimp
 1de:	0000                	unimp
 1e0:	0ca4                	addi	s1,sp,600
 1e2:	0020                	addi	s0,sp,8
 1e4:	ffe0                	sd	s0,248(a5)
 1e6:	ffff                	0xffff
 1e8:	030c                	addi	a1,sp,384
 1ea:	0000                	unimp
 1ec:	0000                	unimp
 1ee:	0000                	unimp
 1f0:	0fb0                	addi	a2,sp,984
 1f2:	0020                	addi	s0,sp,8
 1f4:	ffe0                	sd	s0,248(a5)
 1f6:	ffff                	0xffff
 1f8:	01a4                	addi	s1,sp,200
 1fa:	0000                	unimp
 1fc:	0000                	unimp
 1fe:	0000                	unimp
 200:	1154                	addi	a3,sp,164
 202:	0020                	addi	s0,sp,8
 204:	ffe0                	sd	s0,248(a5)
 206:	ffff                	0xffff
 208:	00b8                	addi	a4,sp,72
 20a:	0000                	unimp
 20c:	0000                	unimp
 20e:	0000                	unimp
 210:	120c                	addi	a1,sp,288
 212:	0020                	addi	s0,sp,8
 214:	ffe0                	sd	s0,248(a5)
 216:	ffff                	0xffff
 218:	00d8                	addi	a4,sp,68
 21a:	0000                	unimp
 21c:	0000                	unimp
 21e:	0000                	unimp
 220:	12e4                	addi	s1,sp,364
 222:	0020                	addi	s0,sp,8
 224:	ffe0                	sd	s0,248(a5)
 226:	ffff                	0xffff
 228:	00dc                	addi	a5,sp,68
	...
 23e:	0000                	unimp
 240:	002c                	addi	a1,sp,8
 242:	0000                	unimp
 244:	0002                	c.slli64	zero
 246:	0dfc                	addi	a5,sp,732
 248:	0000                	unimp
 24a:	0008                	0x8
 24c:	0000                	unimp
 24e:	0000                	unimp
 250:	13c0                	addi	s0,sp,484
 252:	0020                	addi	s0,sp,8
 254:	ffe0                	sd	s0,248(a5)
 256:	ffff                	0xffff
 258:	0048                	addi	a0,sp,4
	...
 26e:	0000                	unimp
 270:	002c                	addi	a1,sp,8
 272:	0000                	unimp
 274:	0002                	c.slli64	zero
 276:	0e91                	addi	t4,t4,4
 278:	0000                	unimp
 27a:	0008                	0x8
 27c:	0000                	unimp
 27e:	0000                	unimp
 280:	1408                	addi	a0,sp,544
 282:	0020                	addi	s0,sp,8
 284:	ffe0                	sd	s0,248(a5)
 286:	ffff                	0xffff
 288:	0050                	addi	a2,sp,4
	...
 29e:	0000                	unimp
 2a0:	003c                	addi	a5,sp,8
 2a2:	0000                	unimp
 2a4:	0002                	c.slli64	zero
 2a6:	0f22                	slli	t5,t5,0x8
 2a8:	0000                	unimp
 2aa:	0008                	0x8
 2ac:	0000                	unimp
 2ae:	0000                	unimp
 2b0:	1458                	addi	a4,sp,548
 2b2:	0020                	addi	s0,sp,8
 2b4:	ffe0                	sd	s0,248(a5)
 2b6:	ffff                	0xffff
 2b8:	0074                	addi	a3,sp,12
 2ba:	0000                	unimp
 2bc:	0000                	unimp
 2be:	0000                	unimp
 2c0:	14cc                	addi	a1,sp,612
 2c2:	0020                	addi	s0,sp,8
 2c4:	ffe0                	sd	s0,248(a5)
 2c6:	ffff                	0xffff
 2c8:	0148                	addi	a0,sp,132
	...
 2de:	0000                	unimp
 2e0:	004c                	addi	a1,sp,4
 2e2:	0000                	unimp
 2e4:	0002                	c.slli64	zero
 2e6:	1052                	c.slli	zero,0x34
 2e8:	0000                	unimp
 2ea:	0008                	0x8
 2ec:	0000                	unimp
 2ee:	0000                	unimp
 2f0:	1614                	addi	a3,sp,800
 2f2:	0020                	addi	s0,sp,8
 2f4:	ffe0                	sd	s0,248(a5)
 2f6:	ffff                	0xffff
 2f8:	0050                	addi	a2,sp,4
 2fa:	0000                	unimp
 2fc:	0000                	unimp
 2fe:	0000                	unimp
 300:	1664                	addi	s1,sp,812
 302:	0020                	addi	s0,sp,8
 304:	ffe0                	sd	s0,248(a5)
 306:	ffff                	0xffff
 308:	04dc                	addi	a5,sp,580
 30a:	0000                	unimp
 30c:	0000                	unimp
 30e:	0000                	unimp
 310:	1b40                	addi	s0,sp,436
 312:	0020                	addi	s0,sp,8
 314:	ffe0                	sd	s0,248(a5)
 316:	ffff                	0xffff
 318:	0080                	addi	s0,sp,64
	...
 32e:	0000                	unimp
 330:	002c                	addi	a1,sp,8
 332:	0000                	unimp
 334:	0002                	c.slli64	zero
 336:	140d                	addi	s0,s0,-29
 338:	0000                	unimp
 33a:	0008                	0x8
 33c:	0000                	unimp
 33e:	0000                	unimp
 340:	1bc0                	addi	s0,sp,500
 342:	0020                	addi	s0,sp,8
 344:	ffe0                	sd	s0,248(a5)
 346:	ffff                	0xffff
 348:	0310                	addi	a2,sp,384
	...
 35e:	0000                	unimp
 360:	002c                	addi	a1,sp,8
 362:	0000                	unimp
 364:	0002                	c.slli64	zero
 366:	14c9                	addi	s1,s1,-14
 368:	0000                	unimp
 36a:	0008                	0x8
 36c:	0000                	unimp
 36e:	0000                	unimp
 370:	1ed0                	addi	a2,sp,884
 372:	0020                	addi	s0,sp,8
 374:	ffe0                	sd	s0,248(a5)
 376:	ffff                	0xffff
 378:	0070                	addi	a2,sp,12
	...

Disassembly of section .debug_rnglists:

0000000000000000 <.debug_rnglists>:
   0:	0000002b          	0x2b
   4:	0005                	c.nop	1
   6:	0008                	0x8
   8:	0000                	unimp
   a:	0000                	unimp
   c:	0806                	slli	a6,a6,0x1
   e:	2004                	fld	fs1,0(s0)
  10:	e000                	sd	s0,0(s0)
  12:	ffff                	0xffff
  14:	30ff                	0x30ff
  16:	2004                	fld	fs1,0(s0)
  18:	e000                	sd	s0,0(s0)
  1a:	ffff                	0xffff
  1c:	06ff                	0x6ff
  1e:	0430                	addi	a2,sp,520
  20:	0020                	addi	s0,sp,8
  22:	ffe0                	sd	s0,248(a5)
  24:	ffff                	0xffff
  26:	0494                	addi	a3,sp,576
  28:	0020                	addi	s0,sp,8
  2a:	ffe0                	sd	s0,248(a5)
  2c:	ffff                	0xffff
  2e:	4d00                	lw	s0,24(a0)
  30:	0000                	unimp
  32:	0500                	addi	s0,sp,640
  34:	0800                	addi	s0,sp,16
  36:	0000                	unimp
  38:	0000                	unimp
  3a:	0600                	addi	s0,sp,768
  3c:	0494                	addi	a3,sp,576
  3e:	0020                	addi	s0,sp,8
  40:	ffe0                	sd	s0,248(a5)
  42:	ffff                	0xffff
  44:	04f0                	addi	a2,sp,588
  46:	0020                	addi	s0,sp,8
  48:	ffe0                	sd	s0,248(a5)
  4a:	ffff                	0xffff
  4c:	f006                	sd	ra,32(sp)
  4e:	2004                	fld	fs1,0(s0)
  50:	e000                	sd	s0,0(s0)
  52:	ffff                	0xffff
  54:	68ff                	0x68ff
  56:	2005                	0x2005
  58:	e000                	sd	s0,0(s0)
  5a:	ffff                	0xffff
  5c:	06ff                	0x6ff
  5e:	0568                	addi	a0,sp,652
  60:	0020                	addi	s0,sp,8
  62:	ffe0                	sd	s0,248(a5)
  64:	ffff                	0xffff
  66:	05e8                	addi	a0,sp,716
  68:	0020                	addi	s0,sp,8
  6a:	ffe0                	sd	s0,248(a5)
  6c:	ffff                	0xffff
  6e:	e806                	sd	ra,16(sp)
  70:	2005                	0x2005
  72:	e000                	sd	s0,0(s0)
  74:	ffff                	0xffff
  76:	2cff                	0x2cff
  78:	2006                	fld	ft0,64(sp)
  7a:	e000                	sd	s0,0(s0)
  7c:	ffff                	0xffff
  7e:	00ff                	0xff
  80:	005e                	c.slli	zero,0x17
  82:	0000                	unimp
  84:	0005                	c.nop	1
  86:	0008                	0x8
  88:	0000                	unimp
  8a:	0000                	unimp
  8c:	2c06                	fld	fs8,64(sp)
  8e:	2006                	fld	ft0,64(sp)
  90:	e000                	sd	s0,0(s0)
  92:	ffff                	0xffff
  94:	18ff                	0x18ff
  96:	2008                	fld	fa0,0(s0)
  98:	e000                	sd	s0,0(s0)
  9a:	ffff                	0xffff
  9c:	06ff                	0x6ff
  9e:	0818                	addi	a4,sp,16
  a0:	0020                	addi	s0,sp,8
  a2:	ffe0                	sd	s0,248(a5)
  a4:	ffff                	0xffff
  a6:	0880                	addi	s0,sp,80
  a8:	0020                	addi	s0,sp,8
  aa:	ffe0                	sd	s0,248(a5)
  ac:	ffff                	0xffff
  ae:	8006                	c.mv	zero,ra
  b0:	2008                	fld	fa0,0(s0)
  b2:	e000                	sd	s0,0(s0)
  b4:	ffff                	0xffff
  b6:	fcff                	0xfcff
  b8:	2008                	fld	fa0,0(s0)
  ba:	e000                	sd	s0,0(s0)
  bc:	ffff                	0xffff
  be:	06ff                	0x6ff
  c0:	08fc                	addi	a5,sp,92
  c2:	0020                	addi	s0,sp,8
  c4:	ffe0                	sd	s0,248(a5)
  c6:	ffff                	0xffff
  c8:	0b1c                	addi	a5,sp,400
  ca:	0020                	addi	s0,sp,8
  cc:	ffe0                	sd	s0,248(a5)
  ce:	ffff                	0xffff
  d0:	1c06                	slli	s8,s8,0x21
  d2:	e000200b          	0xe000200b
  d6:	ffff                	0xffff
  d8:	bcff                	0xbcff
  da:	e000200b          	0xe000200b
  de:	ffff                	0xffff
  e0:	00ff                	0xff
  e2:	001a                	c.slli	zero,0x6
  e4:	0000                	unimp
  e6:	0005                	c.nop	1
  e8:	0008                	0x8
  ea:	0000                	unimp
  ec:	0000                	unimp
  ee:	bc06                	fsd	ft1,56(sp)
  f0:	e000200b          	0xe000200b
  f4:	ffff                	0xffff
  f6:	34ff                	0x34ff
  f8:	200c                	fld	fa1,0(s0)
  fa:	e000                	sd	s0,0(s0)
  fc:	ffff                	0xffff
  fe:	00ff                	0xff
 100:	001a                	c.slli	zero,0x6
 102:	0000                	unimp
 104:	0005                	c.nop	1
 106:	0008                	0x8
 108:	0000                	unimp
 10a:	0000                	unimp
 10c:	3406                	fld	fs0,96(sp)
 10e:	200c                	fld	fa1,0(s0)
 110:	e000                	sd	s0,0(s0)
 112:	ffff                	0xffff
 114:	a4ff                	0xa4ff
 116:	200c                	fld	fa1,0(s0)
 118:	e000                	sd	s0,0(s0)
 11a:	ffff                	0xffff
 11c:	00ff                	0xff
 11e:	005e                	c.slli	zero,0x17
 120:	0000                	unimp
 122:	0005                	c.nop	1
 124:	0008                	0x8
 126:	0000                	unimp
 128:	0000                	unimp
 12a:	a406                	fsd	ft1,8(sp)
 12c:	200c                	fld	fa1,0(s0)
 12e:	e000                	sd	s0,0(s0)
 130:	ffff                	0xffff
 132:	b0ff                	0xb0ff
 134:	e000200f          	0xe000200f
 138:	ffff                	0xffff
 13a:	06ff                	0x6ff
 13c:	0fb0                	addi	a2,sp,984
 13e:	0020                	addi	s0,sp,8
 140:	ffe0                	sd	s0,248(a5)
 142:	ffff                	0xffff
 144:	1154                	addi	a3,sp,164
 146:	0020                	addi	s0,sp,8
 148:	ffe0                	sd	s0,248(a5)
 14a:	ffff                	0xffff
 14c:	5406                	lw	s0,96(sp)
 14e:	2011                	0x2011
 150:	e000                	sd	s0,0(s0)
 152:	ffff                	0xffff
 154:	0cff                	0xcff
 156:	2012                	fld	ft0,256(sp)
 158:	e000                	sd	s0,0(s0)
 15a:	ffff                	0xffff
 15c:	06ff                	0x6ff
 15e:	120c                	addi	a1,sp,288
 160:	0020                	addi	s0,sp,8
 162:	ffe0                	sd	s0,248(a5)
 164:	ffff                	0xffff
 166:	12e4                	addi	s1,sp,364
 168:	0020                	addi	s0,sp,8
 16a:	ffe0                	sd	s0,248(a5)
 16c:	ffff                	0xffff
 16e:	e406                	sd	ra,8(sp)
 170:	2012                	fld	ft0,256(sp)
 172:	e000                	sd	s0,0(s0)
 174:	ffff                	0xffff
 176:	c0ff                	0xc0ff
 178:	e0002013          	slti	zero,zero,-512
 17c:	ffff                	0xffff
 17e:	00ff                	0xff
 180:	001a                	c.slli	zero,0x6
 182:	0000                	unimp
 184:	0005                	c.nop	1
 186:	0008                	0x8
 188:	0000                	unimp
 18a:	0000                	unimp
 18c:	c006                	sw	ra,0(sp)
 18e:	e0002013          	slti	zero,zero,-512
 192:	ffff                	0xffff
 194:	08ff                	0x8ff
 196:	2014                	fld	fa3,0(s0)
 198:	e000                	sd	s0,0(s0)
 19a:	ffff                	0xffff
 19c:	00ff                	0xff
 19e:	001a                	c.slli	zero,0x6
 1a0:	0000                	unimp
 1a2:	0005                	c.nop	1
 1a4:	0008                	0x8
 1a6:	0000                	unimp
 1a8:	0000                	unimp
 1aa:	0806                	slli	a6,a6,0x1
 1ac:	2014                	fld	fa3,0(s0)
 1ae:	e000                	sd	s0,0(s0)
 1b0:	ffff                	0xffff
 1b2:	58ff                	0x58ff
 1b4:	2014                	fld	fa3,0(s0)
 1b6:	e000                	sd	s0,0(s0)
 1b8:	ffff                	0xffff
 1ba:	00ff                	0xff
 1bc:	0000002b          	0x2b
 1c0:	0005                	c.nop	1
 1c2:	0008                	0x8
 1c4:	0000                	unimp
 1c6:	0000                	unimp
 1c8:	5806                	lw	a6,96(sp)
 1ca:	2014                	fld	fa3,0(s0)
 1cc:	e000                	sd	s0,0(s0)
 1ce:	ffff                	0xffff
 1d0:	ccff                	0xccff
 1d2:	2014                	fld	fa3,0(s0)
 1d4:	e000                	sd	s0,0(s0)
 1d6:	ffff                	0xffff
 1d8:	06ff                	0x6ff
 1da:	14cc                	addi	a1,sp,612
 1dc:	0020                	addi	s0,sp,8
 1de:	ffe0                	sd	s0,248(a5)
 1e0:	ffff                	0xffff
 1e2:	1614                	addi	a3,sp,800
 1e4:	0020                	addi	s0,sp,8
 1e6:	ffe0                	sd	s0,248(a5)
 1e8:	ffff                	0xffff
 1ea:	3c00                	fld	fs0,56(s0)
 1ec:	0000                	unimp
 1ee:	0500                	addi	s0,sp,640
 1f0:	0800                	addi	s0,sp,16
 1f2:	0000                	unimp
 1f4:	0000                	unimp
 1f6:	0600                	addi	s0,sp,768
 1f8:	1614                	addi	a3,sp,800
 1fa:	0020                	addi	s0,sp,8
 1fc:	ffe0                	sd	s0,248(a5)
 1fe:	ffff                	0xffff
 200:	1664                	addi	s1,sp,812
 202:	0020                	addi	s0,sp,8
 204:	ffe0                	sd	s0,248(a5)
 206:	ffff                	0xffff
 208:	6406                	ld	s0,64(sp)
 20a:	2016                	fld	ft0,320(sp)
 20c:	e000                	sd	s0,0(s0)
 20e:	ffff                	0xffff
 210:	40ff                	0x40ff
 212:	e000201b          	0xe000201b
 216:	ffff                	0xffff
 218:	06ff                	0x6ff
 21a:	1b40                	addi	s0,sp,436
 21c:	0020                	addi	s0,sp,8
 21e:	ffe0                	sd	s0,248(a5)
 220:	ffff                	0xffff
 222:	1bc0                	addi	s0,sp,500
 224:	0020                	addi	s0,sp,8
 226:	ffe0                	sd	s0,248(a5)
 228:	ffff                	0xffff
 22a:	1a00                	addi	s0,sp,304
 22c:	0000                	unimp
 22e:	0500                	addi	s0,sp,640
 230:	0800                	addi	s0,sp,16
 232:	0000                	unimp
 234:	0000                	unimp
 236:	0600                	addi	s0,sp,768
 238:	1bc0                	addi	s0,sp,500
 23a:	0020                	addi	s0,sp,8
 23c:	ffe0                	sd	s0,248(a5)
 23e:	ffff                	0xffff
 240:	1ed0                	addi	a2,sp,884
 242:	0020                	addi	s0,sp,8
 244:	ffe0                	sd	s0,248(a5)
 246:	ffff                	0xffff
 248:	1a00                	addi	s0,sp,304
 24a:	0000                	unimp
 24c:	0500                	addi	s0,sp,640
 24e:	0800                	addi	s0,sp,16
 250:	0000                	unimp
 252:	0000                	unimp
 254:	0600                	addi	s0,sp,768
 256:	1ed0                	addi	a2,sp,884
 258:	0020                	addi	s0,sp,8
 25a:	ffe0                	sd	s0,248(a5)
 25c:	ffff                	0xffff
 25e:	1f40                	addi	s0,sp,948
 260:	0020                	addi	s0,sp,8
 262:	ffe0                	sd	s0,248(a5)
 264:	ffff                	0xffff
	...

Disassembly of section .debug_line:

0000000000000000 <.debug_line>:
       0:	00ac                	addi	a1,sp,72
       2:	0000                	unimp
       4:	0005                	c.nop	1
       6:	0008                	0x8
       8:	0038                	addi	a4,sp,8
       a:	0000                	unimp
       c:	0101                	addi	sp,sp,0
       e:	fb01                	bnez	a4,ffffffffffffff1e <_ebss+0x1fffdf6f7e>
      10:	0d0e                	slli	s10,s10,0x3
      12:	0100                	addi	s0,sp,128
      14:	0101                	addi	sp,sp,0
      16:	0001                	nop
      18:	0000                	unimp
      1a:	0001                	nop
      1c:	0100                	addi	s0,sp,128
      1e:	0101                	addi	sp,sp,0
      20:	021f 0008 0000      	0x8021f
      26:	0036                	c.slli	zero,0xd
      28:	0000                	unimp
      2a:	0102                	c.slli64	sp
      2c:	021f 040f 0000      	0x40f021f
	...
      3a:	0065                	c.nop	25
      3c:	0000                	unimp
      3e:	6b01                	0x6b01
      40:	0000                	unimp
      42:	0100                	addi	s0,sp,128
      44:	1c05                	addi	s8,s8,-31
      46:	0900                	addi	s0,sp,144
      48:	0802                	c.slli64	a6
      4a:	2004                	fld	fs1,0(s0)
      4c:	e000                	sd	s0,0(s0)
      4e:	ffff                	0xffff
      50:	03ff                	0x3ff
      52:	0109                	addi	sp,sp,2
      54:	0505                	addi	a0,a0,1
      56:	0c090303          	lb	t1,192(s2) # 10c0 <BASE_ADDR-0x801fef40>
      5a:	0100                	addi	s0,sp,128
      5c:	0c05                	addi	s8,s8,1
      5e:	08090103          	lb	sp,128(s2)
      62:	0100                	addi	s0,sp,128
      64:	0105                	addi	sp,sp,1
      66:	04090103          	lb	sp,64(s2)
      6a:	0100                	addi	s0,sp,128
      6c:	1009                	c.nop	-30
      6e:	0000                	unimp
      70:	0101                	addi	sp,sp,0
      72:	1d05                	addi	s10,s10,-31
      74:	0900                	addi	s0,sp,144
      76:	3002                	fld	ft0,32(sp)
      78:	2004                	fld	fs1,0(s0)
      7a:	e000                	sd	s0,0(s0)
      7c:	ffff                	0xffff
      7e:	03ff                	0x3ff
      80:	0110                	addi	a2,sp,128
      82:	1a05                	addi	s4,s4,-31
      84:	10090203          	lb	tp,256(s2)
      88:	0100                	addi	s0,sp,128
      8a:	2705                	addiw	a4,a4,1
      8c:	08090003          	lb	zero,128(s2)
      90:	0100                	addi	s0,sp,128
      92:	1305                	addi	t1,t1,-31
      94:	0c090003          	lb	zero,192(s2)
      98:	0100                	addi	s0,sp,128
      9a:	0505                	addi	a0,a0,1
      9c:	08090303          	lb	t1,128(s2)
      a0:	0100                	addi	s0,sp,128
      a2:	0105                	addi	sp,sp,1
      a4:	24090203          	lb	tp,576(s2)
      a8:	0100                	addi	s0,sp,128
      aa:	1409                	addi	s0,s0,-30
      ac:	0000                	unimp
      ae:	0101                	addi	sp,sp,0
      b0:	02ec                	addi	a1,sp,332
      b2:	0000                	unimp
      b4:	0005                	c.nop	1
      b6:	0008                	0x8
      b8:	002a                	c.slli	zero,0xa
      ba:	0000                	unimp
      bc:	0101                	addi	sp,sp,0
      be:	fb01                	bnez	a4,ffffffffffffffce <_ebss+0x1fffdf702e>
      c0:	0d0e                	slli	s10,s10,0x3
      c2:	0100                	addi	s0,sp,128
      c4:	0101                	addi	sp,sp,0
      c6:	0001                	nop
      c8:	0000                	unimp
      ca:	0001                	nop
      cc:	0100                	addi	s0,sp,128
      ce:	0101                	addi	sp,sp,0
      d0:	011f 0008 0000      	0x8011f
      d6:	0102                	c.slli64	sp
      d8:	021f 020f 0074      	0x74020f021f
      de:	0000                	unimp
      e0:	7400                	ld	s0,40(s0)
      e2:	0000                	unimp
      e4:	0000                	unimp
      e6:	0900                	addi	s0,sp,144
      e8:	2402                	fld	fs0,0(sp)
      ea:	2001                	0x2001
      ec:	e000                	sd	s0,0(s0)
      ee:	ffff                	0xffff
      f0:	03ff                	0x3ff
      f2:	011e                	slli	sp,sp,0x7
      f4:	08090103          	lb	sp,128(s2)
      f8:	0100                	addi	s0,sp,128
      fa:	08090103          	lb	sp,128(s2)
      fe:	0100                	addi	s0,sp,128
     100:	08090103          	lb	sp,128(s2)
     104:	0100                	addi	s0,sp,128
     106:	08090103          	lb	sp,128(s2)
     10a:	0100                	addi	s0,sp,128
     10c:	08090103          	lb	sp,128(s2)
     110:	0100                	addi	s0,sp,128
     112:	08090103          	lb	sp,128(s2)
     116:	0100                	addi	s0,sp,128
     118:	08090103          	lb	sp,128(s2)
     11c:	0100                	addi	s0,sp,128
     11e:	08090103          	lb	sp,128(s2)
     122:	0100                	addi	s0,sp,128
     124:	08090103          	lb	sp,128(s2)
     128:	0100                	addi	s0,sp,128
     12a:	08090103          	lb	sp,128(s2)
     12e:	0100                	addi	s0,sp,128
     130:	08090103          	lb	sp,128(s2)
     134:	0100                	addi	s0,sp,128
     136:	08090103          	lb	sp,128(s2)
     13a:	0100                	addi	s0,sp,128
     13c:	08090103          	lb	sp,128(s2)
     140:	0100                	addi	s0,sp,128
     142:	08090103          	lb	sp,128(s2)
     146:	0100                	addi	s0,sp,128
     148:	08090103          	lb	sp,128(s2)
     14c:	0100                	addi	s0,sp,128
     14e:	08090103          	lb	sp,128(s2)
     152:	0100                	addi	s0,sp,128
     154:	08090103          	lb	sp,128(s2)
     158:	0100                	addi	s0,sp,128
     15a:	08090103          	lb	sp,128(s2)
     15e:	0100                	addi	s0,sp,128
     160:	08090103          	lb	sp,128(s2)
     164:	0100                	addi	s0,sp,128
     166:	08090103          	lb	sp,128(s2)
     16a:	0100                	addi	s0,sp,128
     16c:	08090103          	lb	sp,128(s2)
     170:	0100                	addi	s0,sp,128
     172:	08090103          	lb	sp,128(s2)
     176:	0100                	addi	s0,sp,128
     178:	08090103          	lb	sp,128(s2)
     17c:	0100                	addi	s0,sp,128
     17e:	08090103          	lb	sp,128(s2)
     182:	0100                	addi	s0,sp,128
     184:	08090103          	lb	sp,128(s2)
     188:	0100                	addi	s0,sp,128
     18a:	08090103          	lb	sp,128(s2)
     18e:	0100                	addi	s0,sp,128
     190:	08090103          	lb	sp,128(s2)
     194:	0100                	addi	s0,sp,128
     196:	08090103          	lb	sp,128(s2)
     19a:	0100                	addi	s0,sp,128
     19c:	08090103          	lb	sp,128(s2)
     1a0:	0100                	addi	s0,sp,128
     1a2:	08090103          	lb	sp,128(s2)
     1a6:	0100                	addi	s0,sp,128
     1a8:	08090103          	lb	sp,128(s2)
     1ac:	0100                	addi	s0,sp,128
     1ae:	04090103          	lb	sp,64(s2)
     1b2:	0100                	addi	s0,sp,128
     1b4:	08090103          	lb	sp,128(s2)
     1b8:	0100                	addi	s0,sp,128
     1ba:	04090103          	lb	sp,64(s2)
     1be:	0100                	addi	s0,sp,128
     1c0:	08090103          	lb	sp,128(s2)
     1c4:	0100                	addi	s0,sp,128
     1c6:	04090103          	lb	sp,64(s2)
     1ca:	0100                	addi	s0,sp,128
     1cc:	08090103          	lb	sp,128(s2)
     1d0:	0100                	addi	s0,sp,128
     1d2:	04090103          	lb	sp,64(s2)
     1d6:	0100                	addi	s0,sp,128
     1d8:	08090503          	lb	a0,128(s2)
     1dc:	0100                	addi	s0,sp,128
     1de:	04090103          	lb	sp,64(s2)
     1e2:	0100                	addi	s0,sp,128
     1e4:	04090103          	lb	sp,64(s2)
     1e8:	0100                	addi	s0,sp,128
     1ea:	04090703          	lb	a4,64(s2)
     1ee:	0100                	addi	s0,sp,128
     1f0:	08090103          	lb	sp,128(s2)
     1f4:	0100                	addi	s0,sp,128
     1f6:	04090103          	lb	sp,64(s2)
     1fa:	0100                	addi	s0,sp,128
     1fc:	08090103          	lb	sp,128(s2)
     200:	0100                	addi	s0,sp,128
     202:	04090103          	lb	sp,64(s2)
     206:	0100                	addi	s0,sp,128
     208:	08090103          	lb	sp,128(s2)
     20c:	0100                	addi	s0,sp,128
     20e:	04090103          	lb	sp,64(s2)
     212:	0100                	addi	s0,sp,128
     214:	08090103          	lb	sp,128(s2)
     218:	0100                	addi	s0,sp,128
     21a:	04090103          	lb	sp,64(s2)
     21e:	0100                	addi	s0,sp,128
     220:	08090103          	lb	sp,128(s2)
     224:	0100                	addi	s0,sp,128
     226:	08090103          	lb	sp,128(s2)
     22a:	0100                	addi	s0,sp,128
     22c:	08090103          	lb	sp,128(s2)
     230:	0100                	addi	s0,sp,128
     232:	08090103          	lb	sp,128(s2)
     236:	0100                	addi	s0,sp,128
     238:	08090103          	lb	sp,128(s2)
     23c:	0100                	addi	s0,sp,128
     23e:	08090103          	lb	sp,128(s2)
     242:	0100                	addi	s0,sp,128
     244:	08090103          	lb	sp,128(s2)
     248:	0100                	addi	s0,sp,128
     24a:	08090103          	lb	sp,128(s2)
     24e:	0100                	addi	s0,sp,128
     250:	08090103          	lb	sp,128(s2)
     254:	0100                	addi	s0,sp,128
     256:	08090103          	lb	sp,128(s2)
     25a:	0100                	addi	s0,sp,128
     25c:	08090103          	lb	sp,128(s2)
     260:	0100                	addi	s0,sp,128
     262:	08090103          	lb	sp,128(s2)
     266:	0100                	addi	s0,sp,128
     268:	08090103          	lb	sp,128(s2)
     26c:	0100                	addi	s0,sp,128
     26e:	08090103          	lb	sp,128(s2)
     272:	0100                	addi	s0,sp,128
     274:	08090103          	lb	sp,128(s2)
     278:	0100                	addi	s0,sp,128
     27a:	08090103          	lb	sp,128(s2)
     27e:	0100                	addi	s0,sp,128
     280:	08090103          	lb	sp,128(s2)
     284:	0100                	addi	s0,sp,128
     286:	08090103          	lb	sp,128(s2)
     28a:	0100                	addi	s0,sp,128
     28c:	08090103          	lb	sp,128(s2)
     290:	0100                	addi	s0,sp,128
     292:	08090103          	lb	sp,128(s2)
     296:	0100                	addi	s0,sp,128
     298:	08090103          	lb	sp,128(s2)
     29c:	0100                	addi	s0,sp,128
     29e:	08090103          	lb	sp,128(s2)
     2a2:	0100                	addi	s0,sp,128
     2a4:	08090103          	lb	sp,128(s2)
     2a8:	0100                	addi	s0,sp,128
     2aa:	08090103          	lb	sp,128(s2)
     2ae:	0100                	addi	s0,sp,128
     2b0:	08090103          	lb	sp,128(s2)
     2b4:	0100                	addi	s0,sp,128
     2b6:	08090103          	lb	sp,128(s2)
     2ba:	0100                	addi	s0,sp,128
     2bc:	08090103          	lb	sp,128(s2)
     2c0:	0100                	addi	s0,sp,128
     2c2:	08090103          	lb	sp,128(s2)
     2c6:	0100                	addi	s0,sp,128
     2c8:	08090103          	lb	sp,128(s2)
     2cc:	0100                	addi	s0,sp,128
     2ce:	08090103          	lb	sp,128(s2)
     2d2:	0100                	addi	s0,sp,128
     2d4:	08090303          	lb	t1,128(s2)
     2d8:	0100                	addi	s0,sp,128
     2da:	04090503          	lb	a0,64(s2)
     2de:	0100                	addi	s0,sp,128
     2e0:	08090103          	lb	sp,128(s2)
     2e4:	0100                	addi	s0,sp,128
     2e6:	04090103          	lb	sp,64(s2)
     2ea:	0100                	addi	s0,sp,128
     2ec:	04090303          	lb	t1,64(s2)
     2f0:	0100                	addi	s0,sp,128
     2f2:	04090103          	lb	sp,64(s2)
     2f6:	0100                	addi	s0,sp,128
     2f8:	04090103          	lb	sp,64(s2)
     2fc:	0100                	addi	s0,sp,128
     2fe:	04090103          	lb	sp,64(s2)
     302:	0100                	addi	s0,sp,128
     304:	04090103          	lb	sp,64(s2)
     308:	0100                	addi	s0,sp,128
     30a:	04090103          	lb	sp,64(s2)
     30e:	0100                	addi	s0,sp,128
     310:	04090103          	lb	sp,64(s2)
     314:	0100                	addi	s0,sp,128
     316:	04090103          	lb	sp,64(s2)
     31a:	0100                	addi	s0,sp,128
     31c:	04090103          	lb	sp,64(s2)
     320:	0100                	addi	s0,sp,128
     322:	04090103          	lb	sp,64(s2)
     326:	0100                	addi	s0,sp,128
     328:	04090103          	lb	sp,64(s2)
     32c:	0100                	addi	s0,sp,128
     32e:	04090103          	lb	sp,64(s2)
     332:	0100                	addi	s0,sp,128
     334:	04090103          	lb	sp,64(s2)
     338:	0100                	addi	s0,sp,128
     33a:	04090103          	lb	sp,64(s2)
     33e:	0100                	addi	s0,sp,128
     340:	04090203          	lb	tp,64(s2)
     344:	0100                	addi	s0,sp,128
     346:	04090103          	lb	sp,64(s2)
     34a:	0100                	addi	s0,sp,128
     34c:	04090103          	lb	sp,64(s2)
     350:	0100                	addi	s0,sp,128
     352:	04090103          	lb	sp,64(s2)
     356:	0100                	addi	s0,sp,128
     358:	04090103          	lb	sp,64(s2)
     35c:	0100                	addi	s0,sp,128
     35e:	04090103          	lb	sp,64(s2)
     362:	0100                	addi	s0,sp,128
     364:	04090103          	lb	sp,64(s2)
     368:	0100                	addi	s0,sp,128
     36a:	04090103          	lb	sp,64(s2)
     36e:	0100                	addi	s0,sp,128
     370:	04090103          	lb	sp,64(s2)
     374:	0100                	addi	s0,sp,128
     376:	04090103          	lb	sp,64(s2)
     37a:	0100                	addi	s0,sp,128
     37c:	04090103          	lb	sp,64(s2)
     380:	0100                	addi	s0,sp,128
     382:	04090103          	lb	sp,64(s2)
     386:	0100                	addi	s0,sp,128
     388:	04090103          	lb	sp,64(s2)
     38c:	0100                	addi	s0,sp,128
     38e:	04090103          	lb	sp,64(s2)
     392:	0100                	addi	s0,sp,128
     394:	04090203          	lb	tp,64(s2)
     398:	0100                	addi	s0,sp,128
     39a:	0409                	addi	s0,s0,2
     39c:	0000                	unimp
     39e:	0101                	addi	sp,sp,0
     3a0:	0142                	slli	sp,sp,0x10
     3a2:	0000                	unimp
     3a4:	0005                	c.nop	1
     3a6:	0008                	0x8
     3a8:	002a                	c.slli	zero,0xa
     3aa:	0000                	unimp
     3ac:	0101                	addi	sp,sp,0
     3ae:	fb01                	bnez	a4,2be <BASE_ADDR-0x801ffd42>
     3b0:	0d0e                	slli	s10,s10,0x3
     3b2:	0100                	addi	s0,sp,128
     3b4:	0101                	addi	sp,sp,0
     3b6:	0001                	nop
     3b8:	0000                	unimp
     3ba:	0001                	nop
     3bc:	0100                	addi	s0,sp,128
     3be:	0101                	addi	sp,sp,0
     3c0:	011f 0008 0000      	0x8011f
     3c6:	0102                	c.slli64	sp
     3c8:	021f 020f 007c      	0x7c020f021f
     3ce:	0000                	unimp
     3d0:	7c00                	ld	s0,56(s0)
     3d2:	0000                	unimp
     3d4:	0000                	unimp
     3d6:	0900                	addi	s0,sp,144
     3d8:	0002                	c.slli64	zero
     3da:	2000                	fld	fs0,0(s0)
     3dc:	e000                	sd	s0,0(s0)
     3de:	ffff                	0xffff
     3e0:	03ff                	0x3ff
     3e2:	0116                	slli	sp,sp,0x5
     3e4:	08090203          	lb	tp,128(s2)
     3e8:	0100                	addi	s0,sp,128
     3ea:	04090103          	lb	sp,64(s2)
     3ee:	0100                	addi	s0,sp,128
     3f0:	04090203          	lb	tp,64(s2)
     3f4:	0100                	addi	s0,sp,128
     3f6:	24090203          	lb	tp,576(s2)
     3fa:	0100                	addi	s0,sp,128
     3fc:	04090203          	lb	tp,64(s2)
     400:	0100                	addi	s0,sp,128
     402:	24090103          	lb	sp,576(s2)
     406:	0100                	addi	s0,sp,128
     408:	04090303          	lb	t1,64(s2)
     40c:	0100                	addi	s0,sp,128
     40e:	08090103          	lb	sp,128(s2)
     412:	0100                	addi	s0,sp,128
     414:	04090503          	lb	a0,64(s2)
     418:	0100                	addi	s0,sp,128
     41a:	04090103          	lb	sp,64(s2)
     41e:	0100                	addi	s0,sp,128
     420:	04090103          	lb	sp,64(s2)
     424:	0100                	addi	s0,sp,128
     426:	04090103          	lb	sp,64(s2)
     42a:	0100                	addi	s0,sp,128
     42c:	04090503          	lb	a0,64(s2)
     430:	0100                	addi	s0,sp,128
     432:	04090103          	lb	sp,64(s2)
     436:	0100                	addi	s0,sp,128
     438:	08090103          	lb	sp,128(s2)
     43c:	0100                	addi	s0,sp,128
     43e:	04090203          	lb	tp,64(s2)
     442:	0100                	addi	s0,sp,128
     444:	04090103          	lb	sp,64(s2)
     448:	0100                	addi	s0,sp,128
     44a:	04090103          	lb	sp,64(s2)
     44e:	0100                	addi	s0,sp,128
     450:	04090103          	lb	sp,64(s2)
     454:	0100                	addi	s0,sp,128
     456:	04090103          	lb	sp,64(s2)
     45a:	0100                	addi	s0,sp,128
     45c:	04090103          	lb	sp,64(s2)
     460:	0100                	addi	s0,sp,128
     462:	04090103          	lb	sp,64(s2)
     466:	0100                	addi	s0,sp,128
     468:	04090103          	lb	sp,64(s2)
     46c:	0100                	addi	s0,sp,128
     46e:	04090103          	lb	sp,64(s2)
     472:	0100                	addi	s0,sp,128
     474:	04091003          	lh	zero,64(s2)
     478:	0100                	addi	s0,sp,128
     47a:	04090103          	lb	sp,64(s2)
     47e:	0100                	addi	s0,sp,128
     480:	04090103          	lb	sp,64(s2)
     484:	0100                	addi	s0,sp,128
     486:	04090103          	lb	sp,64(s2)
     48a:	0100                	addi	s0,sp,128
     48c:	04090703          	lb	a4,64(s2)
     490:	0100                	addi	s0,sp,128
     492:	04090103          	lb	sp,64(s2)
     496:	0100                	addi	s0,sp,128
     498:	04090503          	lb	a0,64(s2)
     49c:	0100                	addi	s0,sp,128
     49e:	08090103          	lb	sp,128(s2)
     4a2:	0100                	addi	s0,sp,128
     4a4:	04090203          	lb	tp,64(s2)
     4a8:	0100                	addi	s0,sp,128
     4aa:	04090703          	lb	a4,64(s2)
     4ae:	0100                	addi	s0,sp,128
     4b0:	04090203          	lb	tp,64(s2)
     4b4:	0100                	addi	s0,sp,128
     4b6:	08090103          	lb	sp,128(s2)
     4ba:	0100                	addi	s0,sp,128
     4bc:	08090203          	lb	tp,128(s2)
     4c0:	0100                	addi	s0,sp,128
     4c2:	04090103          	lb	sp,64(s2)
     4c6:	0100                	addi	s0,sp,128
     4c8:	04090203          	lb	tp,64(s2)
     4cc:	0100                	addi	s0,sp,128
     4ce:	04090703          	lb	a4,64(s2)
     4d2:	0100                	addi	s0,sp,128
     4d4:	04090103          	lb	sp,64(s2)
     4d8:	0100                	addi	s0,sp,128
     4da:	24090303          	lb	t1,576(s2)
     4de:	0100                	addi	s0,sp,128
     4e0:	0409                	addi	s0,s0,2
     4e2:	0000                	unimp
     4e4:	0101                	addi	sp,sp,0
     4e6:	0194                	addi	a3,sp,192
     4e8:	0000                	unimp
     4ea:	0005                	c.nop	1
     4ec:	0008                	0x8
     4ee:	0046                	c.slli	zero,0x11
     4f0:	0000                	unimp
     4f2:	0101                	addi	sp,sp,0
     4f4:	fb01                	bnez	a4,404 <BASE_ADDR-0x801ffbfc>
     4f6:	0d0e                	slli	s10,s10,0x3
     4f8:	0100                	addi	s0,sp,128
     4fa:	0101                	addi	sp,sp,0
     4fc:	0001                	nop
     4fe:	0000                	unimp
     500:	0001                	nop
     502:	0100                	addi	s0,sp,128
     504:	0101                	addi	sp,sp,0
     506:	031f 0008 0000      	0x8031f
     50c:	0036                	c.slli	zero,0xd
     50e:	0000                	unimp
     510:	0088                	addi	a0,sp,64
     512:	0000                	unimp
     514:	0102                	c.slli64	sp
     516:	021f 060f 0083      	0x83060f021f
     51c:	0000                	unimp
     51e:	8300                	0x8300
     520:	0000                	unimp
     522:	0000                	unimp
     524:	00ac                	addi	a1,sp,72
     526:	0000                	unimp
     528:	b101                	j	128 <BASE_ADDR-0x801ffed8>
     52a:	0000                	unimp
     52c:	0200                	addi	s0,sp,256
     52e:	00ba                	slli	ra,ra,0xe
     530:	0000                	unimp
     532:	6c02                	ld	s8,0(sp)
     534:	0000                	unimp
     536:	0200                	addi	s0,sp,256
     538:	1105                	addi	sp,sp,-31
     53a:	0900                	addi	s0,sp,144
     53c:	9402                	jalr	s0
     53e:	2004                	fld	fs1,0(s0)
     540:	e000                	sd	s0,0(s0)
     542:	ffff                	0xffff
     544:	03ff                	0x3ff
     546:	010c                	addi	a1,sp,128
     548:	0705                	addi	a4,a4,1
     54a:	10090303          	lb	t1,256(s2)
     54e:	0100                	addi	s0,sp,128
     550:	1605                	addi	a2,a2,-31
     552:	10090103          	lb	sp,256(s2)
     556:	0100                	addi	s0,sp,128
     558:	1305                	addi	t1,t1,-31
     55a:	08090003          	lb	zero,128(s2)
     55e:	0100                	addi	s0,sp,128
     560:	0505                	addi	a0,a0,1
     562:	0c090203          	lb	tp,192(s2)
     566:	0100                	addi	s0,sp,128
     568:	0c05                	addi	s8,s8,1
     56a:	10090103          	lb	sp,256(s2)
     56e:	0100                	addi	s0,sp,128
     570:	0105                	addi	sp,sp,1
     572:	04090103          	lb	sp,64(s2)
     576:	0100                	addi	s0,sp,128
     578:	1409                	addi	s0,s0,-30
     57a:	0000                	unimp
     57c:	0101                	addi	sp,sp,0
     57e:	1905                	addi	s2,s2,-31
     580:	0900                	addi	s0,sp,144
     582:	f002                	sd	zero,32(sp)
     584:	2004                	fld	fs1,0(s0)
     586:	e000                	sd	s0,0(s0)
     588:	ffff                	0xffff
     58a:	03ff                	0x3ff
     58c:	0116                	slli	sp,sp,0x5
     58e:	0a05                	addi	s4,s4,1
     590:	14090403          	lb	s0,320(s2)
     594:	0100                	addi	s0,sp,128
     596:	0505                	addi	a0,a0,1
     598:	10090203          	lb	tp,256(s2)
     59c:	0100                	addi	s0,sp,128
     59e:	0705                	addi	a4,a4,1
     5a0:	14090203          	lb	tp,320(s2)
     5a4:	0100                	addi	s0,sp,128
     5a6:	1305                	addi	t1,t1,-31
     5a8:	08090103          	lb	sp,128(s2)
     5ac:	0100                	addi	s0,sp,128
     5ae:	0d05                	addi	s10,s10,1
     5b0:	0c090003          	lb	zero,192(s2)
     5b4:	0100                	addi	s0,sp,128
     5b6:	1305                	addi	t1,t1,-31
     5b8:	08090103          	lb	sp,128(s2)
     5bc:	0100                	addi	s0,sp,128
     5be:	0505                	addi	a0,a0,1
     5c0:	10090203          	lb	tp,256(s2)
     5c4:	0100                	addi	s0,sp,128
     5c6:	0105                	addi	sp,sp,1
     5c8:	04090103          	lb	sp,64(s2)
     5cc:	0100                	addi	s0,sp,128
     5ce:	1009                	c.nop	-30
     5d0:	0000                	unimp
     5d2:	0101                	addi	sp,sp,0
     5d4:	2905                	addiw	s2,s2,1
     5d6:	0900                	addi	s0,sp,144
     5d8:	6802                	ld	a6,0(sp)
     5da:	2005                	0x2005
     5dc:	e000                	sd	s0,0(s0)
     5de:	ffff                	0xffff
     5e0:	03ff                	0x3ff
     5e2:	0125                	addi	sp,sp,9
     5e4:	1a05                	addi	s4,s4,-31
     5e6:	18090103          	lb	sp,384(s2)
     5ea:	0100                	addi	s0,sp,128
     5ec:	0b05                	addi	s6,s6,1
     5ee:	18090003          	lb	zero,384(s2)
     5f2:	0100                	addi	s0,sp,128
     5f4:	0505                	addi	a0,a0,1
     5f6:	04090103          	lb	sp,64(s2)
     5fa:	0100                	addi	s0,sp,128
     5fc:	0905                	addi	s2,s2,1
     5fe:	0200                	addi	s0,sp,256
     600:	0204                	addi	s1,sp,256
     602:	04090103          	lb	sp,64(s2)
     606:	0100                	addi	s0,sp,128
     608:	3905                	addiw	s2,s2,-31
     60a:	0200                	addi	s0,sp,256
     60c:	0204                	addi	s1,sp,256
     60e:	0c097f03          	0xc097f03
     612:	0100                	addi	s0,sp,128
     614:	0c05                	addi	s8,s8,1
     616:	0200                	addi	s0,sp,256
     618:	0104                	addi	s1,sp,128
     61a:	10090003          	lb	zero,256(s2)
     61e:	0100                	addi	s0,sp,128
     620:	1b05                	addi	s6,s6,-31
     622:	0200                	addi	s0,sp,256
     624:	0104                	addi	s1,sp,128
     626:	04090003          	lb	zero,64(s2)
     62a:	0100                	addi	s0,sp,128
     62c:	2705                	addiw	a4,a4,1
     62e:	0200                	addi	s0,sp,256
     630:	0104                	addi	s1,sp,128
     632:	08090003          	lb	zero,128(s2)
     636:	0100                	addi	s0,sp,128
     638:	2405                	addiw	s0,s0,1
     63a:	0200                	addi	s0,sp,256
     63c:	0104                	addi	s1,sp,128
     63e:	04090003          	lb	zero,64(s2)
     642:	0100                	addi	s0,sp,128
     644:	0105                	addi	sp,sp,1
     646:	04090303          	lb	t1,64(s2)
     64a:	0100                	addi	s0,sp,128
     64c:	1809                	addi	a6,a6,-30
     64e:	0000                	unimp
     650:	0101                	addi	sp,sp,0
     652:	1405                	addi	s0,s0,-31
     654:	0900                	addi	s0,sp,144
     656:	e802                	sd	zero,16(sp)
     658:	2005                	0x2005
     65a:	e000                	sd	s0,0(s0)
     65c:	ffff                	0xffff
     65e:	03ff                	0x3ff
     660:	012c                	addi	a1,sp,136
     662:	0505                	addi	a0,a0,1
     664:	10090103          	lb	sp,256(s2)
     668:	0100                	addi	s0,sp,128
     66a:	14090103          	lb	sp,320(s2)
     66e:	0100                	addi	s0,sp,128
     670:	0105                	addi	sp,sp,1
     672:	0c090103          	lb	sp,192(s2)
     676:	0100                	addi	s0,sp,128
     678:	1409                	addi	s0,s0,-30
     67a:	0000                	unimp
     67c:	0101                	addi	sp,sp,0
     67e:	000004e7          	jalr	s1,zero # 0 <BASE_ADDR-0x80200000>
     682:	0005                	c.nop	1
     684:	0008                	0x8
     686:	0000004b          	fnmsub.s	ft0,ft0,ft0,ft0,rne
     68a:	0101                	addi	sp,sp,0
     68c:	fb01                	bnez	a4,59c <BASE_ADDR-0x801ffa64>
     68e:	0d0e                	slli	s10,s10,0x3
     690:	0100                	addi	s0,sp,128
     692:	0101                	addi	sp,sp,0
     694:	0001                	nop
     696:	0000                	unimp
     698:	0001                	nop
     69a:	0100                	addi	s0,sp,128
     69c:	0101                	addi	sp,sp,0
     69e:	031f 0008 0000      	0x8031f
     6a4:	0036                	c.slli	zero,0xd
     6a6:	0000                	unimp
     6a8:	0088                	addi	a0,sp,64
     6aa:	0000                	unimp
     6ac:	0102                	c.slli64	sp
     6ae:	021f 070f 00c3      	0xc3070f021f
     6b4:	0000                	unimp
     6b6:	c300                	sw	s0,0(a4)
     6b8:	0000                	unimp
     6ba:	0000                	unimp
     6bc:	00ca                	slli	ra,ra,0x12
     6be:	0000                	unimp
     6c0:	d101                	beqz	a0,5c0 <BASE_ADDR-0x801ffa40>
     6c2:	0000                	unimp
     6c4:	0200                	addi	s0,sp,256
     6c6:	00ac                	addi	a1,sp,72
     6c8:	0000                	unimp
     6ca:	b101                	j	2ca <BASE_ADDR-0x801ffd36>
     6cc:	0000                	unimp
     6ce:	0200                	addi	s0,sp,256
     6d0:	0000006b          	0x6b
     6d4:	0501                	addi	a0,a0,0
     6d6:	0012                	c.slli	zero,0x4
     6d8:	0209                	addi	tp,tp,2
     6da:	062c                	addi	a1,sp,776
     6dc:	0020                	addi	s0,sp,8
     6de:	ffe0                	sd	s0,248(a5)
     6e0:	ffff                	0xffff
     6e2:	05010e03          	lb	t3,80(sp)
     6e6:	0321                	addi	t1,t1,8
     6e8:	0902                	c.slli64	s2
     6ea:	0014                	0x14
     6ec:	0501                	addi	a0,a0,0
     6ee:	030c                	addi	a1,sp,384
     6f0:	0900                	addi	s0,sp,144
     6f2:	0008                	0x8
     6f4:	0501                	addi	a0,a0,0
     6f6:	030a                	slli	t1,t1,0x2
     6f8:	0900                	addi	s0,sp,144
     6fa:	0004                	0x4
     6fc:	0301                	addi	t1,t1,0
     6fe:	0902                	c.slli64	s2
     700:	000c                	0xc
     702:	0501                	addi	a0,a0,0
     704:	09000313          	li	t1,144
     708:	000c                	0xc
     70a:	0501                	addi	a0,a0,0
     70c:	030a                	slli	t1,t1,0x2
     70e:	0902                	c.slli64	s2
     710:	0004                	0x4
     712:	0501                	addi	a0,a0,0
     714:	0315                	addi	t1,t1,5
     716:	0900                	addi	s0,sp,144
     718:	000c                	0xc
     71a:	0501                	addi	a0,a0,0
     71c:	030a                	slli	t1,t1,0x2
     71e:	0901                	addi	s2,s2,0
     720:	0004                	0x4
     722:	0501                	addi	a0,a0,0
     724:	0316                	slli	t1,t1,0x5
     726:	0900                	addi	s0,sp,144
     728:	000c                	0xc
     72a:	0501                	addi	a0,a0,0
     72c:	030a                	slli	t1,t1,0x2
     72e:	0902                	c.slli64	s2
     730:	0004                	0x4
     732:	0501                	addi	a0,a0,0
     734:	0311                	addi	t1,t1,4
     736:	0900                	addi	s0,sp,144
     738:	000c                	0xc
     73a:	0501                	addi	a0,a0,0
     73c:	030d                	addi	t1,t1,3
     73e:	0902                	c.slli64	s2
     740:	0004                	0x4
     742:	0301                	addi	t1,t1,0
     744:	0901                	addi	s2,s2,0
     746:	0018                	0x18
     748:	0301                	addi	t1,t1,0
     74a:	00180903          	lb	s2,1(a6)
     74e:	0501                	addi	a0,a0,0
     750:	0305                	addi	t1,t1,1
     752:	0900                	addi	s0,sp,144
     754:	0008                	0x8
     756:	0501                	addi	a0,a0,0
     758:	0028                	addi	a0,sp,8
     75a:	0402                	c.slli64	s0
     75c:	09030303          	lb	t1,144(t1)
     760:	0004                	0x4
     762:	0501                	addi	a0,a0,0
     764:	04020013          	addi	zero,tp,64 # fffffffffffe0040 <_ebss+0x1fffdd70a0>
     768:	09000303          	lb	t1,144(zero) # 90 <BASE_ADDR-0x801fff70>
     76c:	0008                	0x8
     76e:	0501                	addi	a0,a0,0
     770:	0011                	c.nop	4
     772:	0402                	c.slli64	s0
     774:	09000303          	lb	t1,144(zero) # 90 <BASE_ADDR-0x801fff70>
     778:	0004                	0x4
     77a:	0501                	addi	a0,a0,0
     77c:	000d                	c.nop	3
     77e:	0402                	c.slli64	s0
     780:	09020303          	lb	t1,144(tp) # 90 <BASE_ADDR-0x801fff70>
     784:	0018                	0x18
     786:	0501                	addi	a0,a0,0
     788:	0018                	0x18
     78a:	0402                	c.slli64	s0
     78c:	09000303          	lb	t1,144(zero) # 90 <BASE_ADDR-0x801fff70>
     790:	0018                	0x18
     792:	0501                	addi	a0,a0,0
     794:	000d                	c.nop	3
     796:	0402                	c.slli64	s0
     798:	09010303          	lb	t1,144(sp)
     79c:	0004                	0x4
     79e:	0501                	addi	a0,a0,0
     7a0:	001a                	c.slli	zero,0x6
     7a2:	0402                	c.slli64	s0
     7a4:	09000303          	lb	t1,144(zero) # 90 <BASE_ADDR-0x801fff70>
     7a8:	0018                	0x18
     7aa:	0501                	addi	a0,a0,0
     7ac:	000d                	c.nop	3
     7ae:	0402                	c.slli64	s0
     7b0:	09010303          	lb	t1,144(sp)
     7b4:	0004                	0x4
     7b6:	0501                	addi	a0,a0,0
     7b8:	001d                	c.nop	7
     7ba:	0402                	c.slli64	s0
     7bc:	09000303          	lb	t1,144(zero) # 90 <BASE_ADDR-0x801fff70>
     7c0:	0018                	0x18
     7c2:	0501                	addi	a0,a0,0
     7c4:	0402001b          	addiw	zero,tp,64
     7c8:	09000303          	lb	t1,144(zero) # 90 <BASE_ADDR-0x801fff70>
     7cc:	0008                	0x8
     7ce:	0501                	addi	a0,a0,0
     7d0:	000d                	c.nop	3
     7d2:	0402                	c.slli64	s0
     7d4:	09010303          	lb	t1,144(sp)
     7d8:	0004                	0x4
     7da:	0501                	addi	a0,a0,0
     7dc:	0016                	c.slli	zero,0x5
     7de:	0402                	c.slli64	s0
     7e0:	09000303          	lb	t1,144(zero) # 90 <BASE_ADDR-0x801fff70>
     7e4:	0018                	0x18
     7e6:	0501                	addi	a0,a0,0
     7e8:	000d                	c.nop	3
     7ea:	0402                	c.slli64	s0
     7ec:	09040303          	lb	t1,144(s0) # fffffffffffe0090 <_ebss+0x1fffdd70f0>
     7f0:	0008                	0x8
     7f2:	0501                	addi	a0,a0,0
     7f4:	001e                	c.slli	zero,0x7
     7f6:	0402                	c.slli64	s0
     7f8:	09000303          	lb	t1,144(zero) # 90 <BASE_ADDR-0x801fff70>
     7fc:	0018                	0x18
     7fe:	0501                	addi	a0,a0,0
     800:	001c                	0x1c
     802:	0402                	c.slli64	s0
     804:	09000303          	lb	t1,144(zero) # 90 <BASE_ADDR-0x801fff70>
     808:	0008                	0x8
     80a:	0501                	addi	a0,a0,0
     80c:	002a                	c.slli	zero,0xa
     80e:	0402                	c.slli64	s0
     810:	09010303          	lb	t1,144(sp)
     814:	0004                	0x4
     816:	0501                	addi	a0,a0,0
     818:	001e                	c.slli	zero,0x7
     81a:	0402                	c.slli64	s0
     81c:	09000303          	lb	t1,144(zero) # 90 <BASE_ADDR-0x801fff70>
     820:	0018                	0x18
     822:	0501                	addi	a0,a0,0
     824:	000d                	c.nop	3
     826:	0402                	c.slli64	s0
     828:	09000303          	lb	t1,144(zero) # 90 <BASE_ADDR-0x801fff70>
     82c:	0004                	0x4
     82e:	0501                	addi	a0,a0,0
     830:	002e                	c.slli	zero,0xb
     832:	0402                	c.slli64	s0
     834:	09000303          	lb	t1,144(zero) # 90 <BASE_ADDR-0x801fff70>
     838:	0018                	0x18
     83a:	0501                	addi	a0,a0,0
     83c:	001c                	0x1c
     83e:	0402                	c.slli64	s0
     840:	09000303          	lb	t1,144(zero) # 90 <BASE_ADDR-0x801fff70>
     844:	0008                	0x8
     846:	0501                	addi	a0,a0,0
     848:	04020023          	sb	zero,64(tp) # 40 <BASE_ADDR-0x801fffc0>
     84c:	09730303          	lb	t1,151(t1)
     850:	0004                	0x4
     852:	0501                	addi	a0,a0,0
     854:	0016                	c.slli	zero,0x5
     856:	0402                	c.slli64	s0
     858:	0301                	addi	t1,t1,0
     85a:	0900                	addi	s0,sp,144
     85c:	000c                	0xc
     85e:	0501                	addi	a0,a0,0
     860:	0305                	addi	t1,t1,1
     862:	0912                	slli	s2,s2,0x4
     864:	0010                	0x10
     866:	0501                	addi	a0,a0,0
     868:	0301                	addi	t1,t1,0
     86a:	0901                	addi	s2,s2,0
     86c:	000c                	0xc
     86e:	0901                	addi	s2,s2,0
     870:	0018                	0x18
     872:	0100                	addi	s0,sp,128
     874:	0501                	addi	a0,a0,0
     876:	002a                	c.slli	zero,0xa
     878:	0209                	addi	tp,tp,2
     87a:	0818                	addi	a4,sp,16
     87c:	0020                	addi	s0,sp,8
     87e:	ffe0                	sd	s0,248(a5)
     880:	ffff                	0xffff
     882:	05013203          	ld	tp,80(sp)
     886:	0319                	addi	t1,t1,6
     888:	0902                	c.slli64	s2
     88a:	0014                	0x14
     88c:	0501                	addi	a0,a0,0
     88e:	0310                	addi	a2,sp,384
     890:	0901                	addi	s2,s2,0
     892:	0010                	0x10
     894:	0501                	addi	a0,a0,0
     896:	09000307          	0x9000307
     89a:	000c                	0xc
     89c:	0501                	addi	a0,a0,0
     89e:	0311                	addi	t1,t1,4
     8a0:	0901                	addi	s2,s2,0
     8a2:	0008                	0x8
     8a4:	0501                	addi	a0,a0,0
     8a6:	0309                	addi	t1,t1,2
     8a8:	0901                	addi	s2,s2,0
     8aa:	0010                	0x10
     8ac:	0501                	addi	a0,a0,0
     8ae:	0301                	addi	t1,t1,0
     8b0:	0902                	c.slli64	s2
     8b2:	000c                	0xc
     8b4:	0901                	addi	s2,s2,0
     8b6:	0014                	0x14
     8b8:	0100                	addi	s0,sp,128
     8ba:	0501                	addi	a0,a0,0
     8bc:	0015                	c.nop	5
     8be:	0209                	addi	tp,tp,2
     8c0:	0880                	addi	s0,sp,80
     8c2:	0020                	addi	s0,sp,8
     8c4:	ffe0                	sd	s0,248(a5)
     8c6:	ffff                	0xffff
     8c8:	05013c03          	ld	s8,80(sp)
     8cc:	0310                	addi	a2,sp,384
     8ce:	0902                	c.slli64	s2
     8d0:	0010                	0x10
     8d2:	0501                	addi	a0,a0,0
     8d4:	09000307          	0x9000307
     8d8:	0018                	0x18
     8da:	0501                	addi	a0,a0,0
     8dc:	0309                	addi	t1,t1,2
     8de:	0901                	addi	s2,s2,0
     8e0:	0004                	0x4
     8e2:	0501                	addi	a0,a0,0
     8e4:	0310                	addi	a2,sp,384
     8e6:	0905                	addi	s2,s2,1
     8e8:	0008                	0x8
     8ea:	0501                	addi	a0,a0,0
     8ec:	0319                	addi	t1,t1,6
     8ee:	0900                	addi	s0,sp,144
     8f0:	0010                	0x10
     8f2:	0501                	addi	a0,a0,0
     8f4:	09010313          	addi	t1,sp,144
     8f8:	0008                	0x8
     8fa:	0501                	addi	a0,a0,0
     8fc:	0900030b          	0x900030b
     900:	0010                	0x10
     902:	0501                	addi	a0,a0,0
     904:	0309                	addi	t1,t1,2
     906:	00040903          	lb	s2,0(s0)
     90a:	0501                	addi	a0,a0,0
     90c:	030d                	addi	t1,t1,3
     90e:	097e                	slli	s2,s2,0x1f
     910:	0008                	0x8
     912:	0501                	addi	a0,a0,0
     914:	0301                	addi	t1,t1,0
     916:	0905                	addi	s2,s2,1
     918:	0004                	0x4
     91a:	0901                	addi	s2,s2,0
     91c:	0010                	0x10
     91e:	0100                	addi	s0,sp,128
     920:	0501                	addi	a0,a0,0
     922:	0014                	0x14
     924:	0209                	addi	tp,tp,2
     926:	08fc                	addi	a5,sp,92
     928:	0020                	addi	s0,sp,8
     92a:	ffe0                	sd	s0,248(a5)
     92c:	ffff                	0xffff
     92e:	0100f303          	0x100f303
     932:	0905                	addi	s2,s2,1
     934:	10090203          	lb	tp,256(s2)
     938:	0100                	addi	s0,sp,128
     93a:	04090103          	lb	sp,64(s2)
     93e:	0100                	addi	s0,sp,128
     940:	0d05                	addi	s10,s10,1
     942:	04090103          	lb	sp,64(s2)
     946:	0100                	addi	s0,sp,128
     948:	0505                	addi	a0,a0,1
     94a:	08090003          	lb	zero,128(s2)
     94e:	0100                	addi	s0,sp,128
     950:	1005                	c.nop	-31
     952:	04090103          	lb	sp,64(s2)
     956:	0100                	addi	s0,sp,128
     958:	1305                	addi	t1,t1,-31
     95a:	18090003          	lb	zero,384(s2)
     95e:	0100                	addi	s0,sp,128
     960:	0b05                	addi	s6,s6,1
     962:	04090003          	lb	zero,64(s2)
     966:	0100                	addi	s0,sp,128
     968:	3205                	addiw	tp,tp,-31
     96a:	0200                	addi	s0,sp,256
     96c:	0104                	addi	s1,sp,128
     96e:	04090003          	lb	zero,64(s2)
     972:	0100                	addi	s0,sp,128
     974:	3505                	addiw	a0,a0,-31
     976:	0200                	addi	s0,sp,256
     978:	0104                	addi	s1,sp,128
     97a:	18090003          	lb	zero,384(s2)
     97e:	0100                	addi	s0,sp,128
     980:	3f05                	addiw	t5,t5,-31
     982:	0200                	addi	s0,sp,256
     984:	0104                	addi	s1,sp,128
     986:	04090003          	lb	zero,64(s2)
     98a:	0100                	addi	s0,sp,128
     98c:	2b05                	addiw	s6,s6,1
     98e:	0200                	addi	s0,sp,256
     990:	0104                	addi	s1,sp,128
     992:	04090003          	lb	zero,64(s2)
     996:	0100                	addi	s0,sp,128
     998:	1e05                	addi	t3,t3,-31
     99a:	04090103          	lb	sp,64(s2)
     99e:	0100                	addi	s0,sp,128
     9a0:	2105                	addiw	sp,sp,1
     9a2:	18090003          	lb	zero,384(s2)
     9a6:	0100                	addi	s0,sp,128
     9a8:	1805                	addi	a6,a6,-31
     9aa:	04090003          	lb	zero,64(s2)
     9ae:	0100                	addi	s0,sp,128
     9b0:	1d05                	addi	s10,s10,-31
     9b2:	04090103          	lb	sp,64(s2)
     9b6:	0100                	addi	s0,sp,128
     9b8:	2305                	addiw	t1,t1,1
     9ba:	0200                	addi	s0,sp,256
     9bc:	0204                	addi	s1,sp,256
     9be:	08097d03          	0x8097d03
     9c2:	0100                	addi	s0,sp,128
     9c4:	1605                	addi	a2,a2,-31
     9c6:	0200                	addi	s0,sp,256
     9c8:	0104                	addi	s1,sp,128
     9ca:	0c090003          	lb	zero,192(s2)
     9ce:	0100                	addi	s0,sp,128
     9d0:	0705                	addi	a4,a4,1
     9d2:	10090703          	lb	a4,256(s2)
     9d6:	0100                	addi	s0,sp,128
     9d8:	5a05                	li	s4,-31
     9da:	0c090103          	lb	sp,192(s2)
     9de:	0100                	addi	s0,sp,128
     9e0:	0905                	addi	s2,s2,1
     9e2:	18090003          	lb	zero,384(s2)
     9e6:	0100                	addi	s0,sp,128
     9e8:	7a05                	lui	s4,0xfffe1
     9ea:	04090003          	lb	zero,64(s2)
     9ee:	0100                	addi	s0,sp,128
     9f0:	0905                	addi	s2,s2,1
     9f2:	18090003          	lb	zero,384(s2)
     9f6:	0100                	addi	s0,sp,128
     9f8:	1c090103          	lb	sp,448(s2)
     9fc:	0100                	addi	s0,sp,128
     9fe:	20090103          	lb	sp,512(s2)
     a02:	0100                	addi	s0,sp,128
     a04:	04090503          	lb	a0,64(s2)
     a08:	0100                	addi	s0,sp,128
     a0a:	1105                	addi	sp,sp,-31
     a0c:	0c090103          	lb	sp,192(s2)
     a10:	0100                	addi	s0,sp,128
     a12:	0905                	addi	s2,s2,1
     a14:	08090003          	lb	zero,128(s2)
     a18:	0100                	addi	s0,sp,128
     a1a:	2505                	addiw	a0,a0,1
     a1c:	0200                	addi	s0,sp,256
     a1e:	0304                	addi	s1,sp,384
     a20:	04090103          	lb	sp,64(s2)
     a24:	0100                	addi	s0,sp,128
     a26:	2805                	addiw	a6,a6,1
     a28:	0200                	addi	s0,sp,256
     a2a:	0304                	addi	s1,sp,384
     a2c:	18090003          	lb	zero,384(s2)
     a30:	0100                	addi	s0,sp,128
     a32:	3205                	addiw	tp,tp,-31
     a34:	0200                	addi	s0,sp,256
     a36:	0304                	addi	s1,sp,384
     a38:	04090003          	lb	zero,64(s2)
     a3c:	0100                	addi	s0,sp,128
     a3e:	3f05                	addiw	t5,t5,-31
     a40:	0200                	addi	s0,sp,256
     a42:	0304                	addi	s1,sp,384
     a44:	04090003          	lb	zero,64(s2)
     a48:	0100                	addi	s0,sp,128
     a4a:	4205                	li	tp,1
     a4c:	0200                	addi	s0,sp,256
     a4e:	0304                	addi	s1,sp,384
     a50:	18090003          	lb	zero,384(s2)
     a54:	0100                	addi	s0,sp,128
     a56:	1105                	addi	sp,sp,-31
     a58:	0200                	addi	s0,sp,256
     a5a:	0304                	addi	s1,sp,384
     a5c:	04090003          	lb	zero,64(s2)
     a60:	0100                	addi	s0,sp,128
     a62:	3805                	addiw	a6,a6,-31
     a64:	0200                	addi	s0,sp,256
     a66:	0304                	addi	s1,sp,384
     a68:	18090003          	lb	zero,384(s2)
     a6c:	0100                	addi	s0,sp,128
     a6e:	1e05                	addi	t3,t3,-31
     a70:	0200                	addi	s0,sp,256
     a72:	0304                	addi	s1,sp,384
     a74:	04090003          	lb	zero,64(s2)
     a78:	0100                	addi	s0,sp,128
     a7a:	4805                	li	a6,1
     a7c:	0200                	addi	s0,sp,256
     a7e:	0304                	addi	s1,sp,384
     a80:	04090203          	lb	tp,64(s2)
     a84:	0100                	addi	s0,sp,128
     a86:	0d05                	addi	s10,s10,1
     a88:	0200                	addi	s0,sp,256
     a8a:	0304                	addi	s1,sp,384
     a8c:	18090003          	lb	zero,384(s2)
     a90:	0100                	addi	s0,sp,128
     a92:	5a05                	li	s4,-31
     a94:	0200                	addi	s0,sp,256
     a96:	0304                	addi	s1,sp,384
     a98:	04090003          	lb	zero,64(s2)
     a9c:	0100                	addi	s0,sp,128
     a9e:	0d05                	addi	s10,s10,1
     aa0:	0200                	addi	s0,sp,256
     aa2:	0304                	addi	s1,sp,384
     aa4:	18090003          	lb	zero,384(s2)
     aa8:	0100                	addi	s0,sp,128
     aaa:	2705                	addiw	a4,a4,1
     aac:	0200                	addi	s0,sp,256
     aae:	0304                	addi	s1,sp,384
     ab0:	1c097d03          	0x1c097d03
     ab4:	0100                	addi	s0,sp,128
     ab6:	1a05                	addi	s4,s4,-31
     ab8:	0200                	addi	s0,sp,256
     aba:	0104                	addi	s1,sp,128
     abc:	0c090003          	lb	zero,192(s2)
     ac0:	0100                	addi	s0,sp,128
     ac2:	0905                	addi	s2,s2,1
     ac4:	10090603          	lb	a2,256(s2)
     ac8:	0100                	addi	s0,sp,128
     aca:	0105                	addi	sp,sp,1
     acc:	04090203          	lb	tp,64(s2)
     ad0:	0100                	addi	s0,sp,128
     ad2:	1009                	c.nop	-30
     ad4:	0000                	unimp
     ad6:	0101                	addi	sp,sp,0
     ad8:	0e05                	addi	t3,t3,1
     ada:	0900                	addi	s0,sp,144
     adc:	1c02                	slli	s8,s8,0x20
     ade:	e000200b          	0xe000200b
     ae2:	ffff                	0xffff
     ae4:	03ff                	0x3ff
     ae6:	0194                	addi	a3,sp,192
     ae8:	0501                	addi	a0,a0,0
     aea:	030c                	addi	a1,sp,384
     aec:	0901                	addi	s2,s2,0
     aee:	0010                	0x10
     af0:	0301                	addi	t1,t1,0
     af2:	0901                	addi	s2,s2,0
     af4:	000c                	0xc
     af6:	0501                	addi	a0,a0,0
     af8:	0309                	addi	t1,t1,2
     afa:	0901                	addi	s2,s2,0
     afc:	0004                	0x4
     afe:	0501                	addi	a0,a0,0
     b00:	030c                	addi	a1,sp,384
     b02:	0902                	c.slli64	s2
     b04:	0008                	0x8
     b06:	0501                	addi	a0,a0,0
     b08:	002a                	c.slli	zero,0xa
     b0a:	0402                	c.slli64	s0
     b0c:	0301                	addi	t1,t1,0
     b0e:	0900                	addi	s0,sp,144
     b10:	0010                	0x10
     b12:	0501                	addi	a0,a0,0
     b14:	0034                	addi	a3,sp,8
     b16:	0402                	c.slli64	s0
     b18:	0301                	addi	t1,t1,0
     b1a:	0900                	addi	s0,sp,144
     b1c:	0010                	0x10
     b1e:	0501                	addi	a0,a0,0
     b20:	0020                	addi	s0,sp,8
     b22:	0402                	c.slli64	s0
     b24:	0301                	addi	t1,t1,0
     b26:	0900                	addi	s0,sp,144
     b28:	0004                	0x4
     b2a:	0501                	addi	a0,a0,0
     b2c:	09010323          	sb	a6,134(sp)
     b30:	0004                	0x4
     b32:	0501                	addi	a0,a0,0
     b34:	031a                	slli	t1,t1,0x6
     b36:	0900                	addi	s0,sp,144
     b38:	0010                	0x10
     b3a:	0501                	addi	a0,a0,0
     b3c:	0336                	slli	t1,t1,0xd
     b3e:	0901                	addi	s2,s2,0
     b40:	0004                	0x4
     b42:	0501                	addi	a0,a0,0
     b44:	0320                	addi	s0,sp,392
     b46:	0900                	addi	s0,sp,144
     b48:	0008                	0x8
     b4a:	0501                	addi	a0,a0,0
     b4c:	0901034f          	fnmadd.s	ft6,ft2,fa6,ft1,rne
     b50:	000c                	0xc
     b52:	0501                	addi	a0,a0,0
     b54:	030d                	addi	t1,t1,3
     b56:	0900                	addi	s0,sp,144
     b58:	000c                	0xc
     b5a:	0501                	addi	a0,a0,0
     b5c:	030c                	addi	a1,sp,384
     b5e:	097d                	addi	s2,s2,31
     b60:	0018                	0x18
     b62:	0901                	addi	s2,s2,0
     b64:	0004                	0x4
     b66:	0100                	addi	s0,sp,128
     b68:	9601                	srai	a2,a2,0x20
     b6a:	0000                	unimp
     b6c:	0500                	addi	s0,sp,640
     b6e:	0800                	addi	s0,sp,16
     b70:	3800                	fld	fs0,48(s0)
     b72:	0000                	unimp
     b74:	0100                	addi	s0,sp,128
     b76:	0101                	addi	sp,sp,0
     b78:	000d0efb          	0xd0efb
     b7c:	0101                	addi	sp,sp,0
     b7e:	0101                	addi	sp,sp,0
     b80:	0000                	unimp
     b82:	0100                	addi	s0,sp,128
     b84:	0000                	unimp
     b86:	0101                	addi	sp,sp,0
     b88:	1f01                	addi	t5,t5,-32
     b8a:	0802                	c.slli64	a6
     b8c:	0000                	unimp
     b8e:	3600                	fld	fs0,40(a2)
     b90:	0000                	unimp
     b92:	0200                	addi	s0,sp,256
     b94:	1f01                	addi	t5,t5,-32
     b96:	0f02                	c.slli64	t5
     b98:	d804                	sw	s1,48(s0)
     b9a:	0000                	unimp
     b9c:	0000                	unimp
     b9e:	00d8                	addi	a4,sp,68
     ba0:	0000                	unimp
     ba2:	6500                	ld	s0,8(a0)
     ba4:	0000                	unimp
     ba6:	0100                	addi	s0,sp,128
     ba8:	0000006b          	0x6b
     bac:	0501                	addi	a0,a0,0
     bae:	0001                	nop
     bb0:	0209                	addi	tp,tp,2
     bb2:	0bbc                	addi	a5,sp,472
     bb4:	0020                	addi	s0,sp,8
     bb6:	ffe0                	sd	s0,248(a5)
     bb8:	ffff                	0xffff
     bba:	051a                	slli	a0,a0,0x6
     bbc:	0312                	slli	t1,t1,0x4
     bbe:	00340903          	lb	s2,3(s0)
     bc2:	0301                	addi	t1,t1,0
     bc4:	0901                	addi	s2,s2,0
     bc6:	0004                	0x4
     bc8:	0301                	addi	t1,t1,0
     bca:	0901                	addi	s2,s2,0
     bcc:	0004                	0x4
     bce:	0301                	addi	t1,t1,0
     bd0:	0901                	addi	s2,s2,0
     bd2:	0004                	0x4
     bd4:	0301                	addi	t1,t1,0
     bd6:	0901                	addi	s2,s2,0
     bd8:	0004                	0x4
     bda:	0301                	addi	t1,t1,0
     bdc:	0901                	addi	s2,s2,0
     bde:	0004                	0x4
     be0:	0301                	addi	t1,t1,0
     be2:	0901                	addi	s2,s2,0
     be4:	0004                	0x4
     be6:	0301                	addi	t1,t1,0
     be8:	0901                	addi	s2,s2,0
     bea:	0004                	0x4
     bec:	0501                	addi	a0,a0,0
     bee:	0302                	c.slli64	t1
     bf0:	00040903          	lb	s2,0(s0)
     bf4:	0501                	addi	a0,a0,0
     bf6:	0301                	addi	t1,t1,0
     bf8:	000c0907          	0xc0907
     bfc:	0901                	addi	s2,s2,0
     bfe:	0018                	0x18
     c00:	0100                	addi	s0,sp,128
     c02:	9c01                	subw	s0,s0,s0
     c04:	0000                	unimp
     c06:	0500                	addi	s0,sp,640
     c08:	0800                	addi	s0,sp,16
     c0a:	3c00                	fld	fs0,56(s0)
     c0c:	0000                	unimp
     c0e:	0100                	addi	s0,sp,128
     c10:	0101                	addi	sp,sp,0
     c12:	000d0efb          	0xd0efb
     c16:	0101                	addi	sp,sp,0
     c18:	0101                	addi	sp,sp,0
     c1a:	0000                	unimp
     c1c:	0100                	addi	s0,sp,128
     c1e:	0000                	unimp
     c20:	0101                	addi	sp,sp,0
     c22:	1f01                	addi	t5,t5,-32
     c24:	00000803          	lb	a6,0(zero) # 0 <BASE_ADDR-0x80200000>
     c28:	3600                	fld	fs0,40(a2)
     c2a:	0000                	unimp
     c2c:	8800                	0x8800
     c2e:	0000                	unimp
     c30:	0200                	addi	s0,sp,256
     c32:	1f01                	addi	t5,t5,-32
     c34:	0f02                	c.slli64	t5
     c36:	de04                	sw	s1,56(a2)
     c38:	0000                	unimp
     c3a:	0000                	unimp
     c3c:	00de                	slli	ra,ra,0x17
     c3e:	0000                	unimp
     c40:	ca00                	sw	s0,16(a2)
     c42:	0000                	unimp
     c44:	0100                	addi	s0,sp,128
     c46:	00b1                	addi	ra,ra,12
     c48:	0000                	unimp
     c4a:	0502                	c.slli64	a0
     c4c:	003d                	c.nop	15
     c4e:	0209                	addi	tp,tp,2
     c50:	0c34                	addi	a3,sp,536
     c52:	0020                	addi	s0,sp,8
     c54:	ffe0                	sd	s0,248(a5)
     c56:	ffff                	0xffff
     c58:	0516                	slli	a0,a0,0x5
     c5a:	0309                	addi	t1,t1,2
     c5c:	00180907          	0x180907
     c60:	0501                	addi	a0,a0,0
     c62:	0308                	addi	a0,sp,384
     c64:	0900                	addi	s0,sp,144
     c66:	0004                	0x4
     c68:	0501                	addi	a0,a0,0
     c6a:	030c                	addi	a1,sp,384
     c6c:	0901                	addi	s2,s2,0
     c6e:	0004                	0x4
     c70:	0501                	addi	a0,a0,0
     c72:	030d                	addi	t1,t1,3
     c74:	0901                	addi	s2,s2,0
     c76:	0014                	0x14
     c78:	0301                	addi	t1,t1,0
     c7a:	0901                	addi	s2,s2,0
     c7c:	000c                	0xc
     c7e:	0301                	addi	t1,t1,0
     c80:	0901                	addi	s2,s2,0
     c82:	0004                	0x4
     c84:	0501                	addi	a0,a0,0
     c86:	0301                	addi	t1,t1,0
     c88:	0905                	addi	s2,s2,1
     c8a:	0004                	0x4
     c8c:	0501                	addi	a0,a0,0
     c8e:	0309                	addi	t1,t1,2
     c90:	097e                	slli	s2,s2,0x1f
     c92:	0004                	0x4
     c94:	0501                	addi	a0,a0,0
     c96:	0301                	addi	t1,t1,0
     c98:	0902                	c.slli64	s2
     c9a:	0010                	0x10
     c9c:	0901                	addi	s2,s2,0
     c9e:	0014                	0x14
     ca0:	0100                	addi	s0,sp,128
     ca2:	1f01                	addi	t5,t5,-32
     ca4:	0004                	0x4
     ca6:	0500                	addi	s0,sp,640
     ca8:	0800                	addi	s0,sp,16
     caa:	4600                	lw	s0,8(a2)
     cac:	0000                	unimp
     cae:	0100                	addi	s0,sp,128
     cb0:	0101                	addi	sp,sp,0
     cb2:	000d0efb          	0xd0efb
     cb6:	0101                	addi	sp,sp,0
     cb8:	0101                	addi	sp,sp,0
     cba:	0000                	unimp
     cbc:	0100                	addi	s0,sp,128
     cbe:	0000                	unimp
     cc0:	0101                	addi	sp,sp,0
     cc2:	1f01                	addi	t5,t5,-32
     cc4:	00000803          	lb	a6,0(zero) # 0 <BASE_ADDR-0x80200000>
     cc8:	8800                	0x8800
     cca:	0000                	unimp
     ccc:	3600                	fld	fs0,40(a2)
     cce:	0000                	unimp
     cd0:	0200                	addi	s0,sp,256
     cd2:	1f01                	addi	t5,t5,-32
     cd4:	0f02                	c.slli64	t5
     cd6:	e506                	sd	ra,136(sp)
     cd8:	0000                	unimp
     cda:	0000                	unimp
     cdc:	00e5                	addi	ra,ra,25
     cde:	0000                	unimp
     ce0:	b100                	fsd	fs0,32(a0)
     ce2:	0000                	unimp
     ce4:	0100                	addi	s0,sp,128
     ce6:	00ba                	slli	ra,ra,0xe
     ce8:	0000                	unimp
     cea:	6c01                	0x6c01
     cec:	0000                	unimp
     cee:	0100                	addi	s0,sp,128
     cf0:	00ac                	addi	a1,sp,72
     cf2:	0000                	unimp
     cf4:	0502                	c.slli64	a0
     cf6:	0015                	c.nop	5
     cf8:	0209                	addi	tp,tp,2
     cfa:	0ca4                	addi	s1,sp,600
     cfc:	0020                	addi	s0,sp,8
     cfe:	ffe0                	sd	s0,248(a5)
     d00:	ffff                	0xffff
     d02:	0100c303          	lbu	t1,16(ra) # 4010 <BASE_ADDR-0x801fbff0>
     d06:	0505                	addi	a0,a0,1
     d08:	10090203          	lb	tp,256(s2)
     d0c:	0100                	addi	s0,sp,128
     d0e:	0c05                	addi	s8,s8,1
     d10:	14090803          	lb	a6,320(s2)
     d14:	0100                	addi	s0,sp,128
     d16:	1d05                	addi	s10,s10,-31
     d18:	0c090203          	lb	tp,192(s2)
     d1c:	0100                	addi	s0,sp,128
     d1e:	0805                	addi	a6,a6,1
     d20:	04090003          	lb	zero,64(s2)
     d24:	0100                	addi	s0,sp,128
     d26:	0505                	addi	a0,a0,1
     d28:	08090103          	lb	sp,128(s2)
     d2c:	0100                	addi	s0,sp,128
     d2e:	3505                	addiw	a0,a0,-31
     d30:	14090003          	lb	zero,320(s2)
     d34:	0100                	addi	s0,sp,128
     d36:	0505                	addi	a0,a0,1
     d38:	1c090003          	lb	zero,448(s2)
     d3c:	0100                	addi	s0,sp,128
     d3e:	1605                	addi	a2,a2,-31
     d40:	18090103          	lb	sp,384(s2)
     d44:	0100                	addi	s0,sp,128
     d46:	0905                	addi	s2,s2,1
     d48:	14090003          	lb	zero,320(s2)
     d4c:	0100                	addi	s0,sp,128
     d4e:	0c05                	addi	s8,s8,1
     d50:	04090103          	lb	sp,64(s2)
     d54:	0100                	addi	s0,sp,128
     d56:	1a05                	addi	s4,s4,-31
     d58:	08090103          	lb	sp,128(s2)
     d5c:	0100                	addi	s0,sp,128
     d5e:	0c05                	addi	s8,s8,1
     d60:	10090003          	lb	zero,256(s2)
     d64:	0100                	addi	s0,sp,128
     d66:	1d05                	addi	s10,s10,-31
     d68:	04090303          	lb	t1,64(s2)
     d6c:	0100                	addi	s0,sp,128
     d6e:	0905                	addi	s2,s2,1
     d70:	04090003          	lb	zero,64(s2)
     d74:	0100                	addi	s0,sp,128
     d76:	1d05                	addi	s10,s10,-31
     d78:	08090103          	lb	sp,128(s2)
     d7c:	0100                	addi	s0,sp,128
     d7e:	0905                	addi	s2,s2,1
     d80:	04090003          	lb	zero,64(s2)
     d84:	0100                	addi	s0,sp,128
     d86:	1905                	addi	s2,s2,-31
     d88:	08090103          	lb	sp,128(s2)
     d8c:	0100                	addi	s0,sp,128
     d8e:	0505                	addi	a0,a0,1
     d90:	14090003          	lb	zero,320(s2)
     d94:	0100                	addi	s0,sp,128
     d96:	2205                	addiw	tp,tp,1
     d98:	04090003          	lb	zero,64(s2)
     d9c:	0100                	addi	s0,sp,128
     d9e:	0505                	addi	a0,a0,1
     da0:	14090003          	lb	zero,320(s2)
     da4:	0100                	addi	s0,sp,128
     da6:	4d05                	li	s10,1
     da8:	18090203          	lb	tp,384(s2)
     dac:	0100                	addi	s0,sp,128
     dae:	1c05                	addi	s8,s8,-31
     db0:	18090003          	lb	zero,384(s2)
     db4:	0100                	addi	s0,sp,128
     db6:	4d05                	li	s10,1
     db8:	14090103          	lb	sp,320(s2)
     dbc:	0100                	addi	s0,sp,128
     dbe:	1c05                	addi	s8,s8,-31
     dc0:	18090003          	lb	zero,384(s2)
     dc4:	0100                	addi	s0,sp,128
     dc6:	1105                	addi	sp,sp,-31
     dc8:	14090103          	lb	sp,320(s2)
     dcc:	0100                	addi	s0,sp,128
     dce:	50090103          	lb	sp,1280(s2)
     dd2:	0100                	addi	s0,sp,128
     dd4:	0f05                	addi	t5,t5,1
     dd6:	50090703          	lb	a4,1280(s2)
     dda:	0100                	addi	s0,sp,128
     ddc:	10090203          	lb	tp,256(s2)
     de0:	0100                	addi	s0,sp,128
     de2:	10090103          	lb	sp,256(s2)
     de6:	0100                	addi	s0,sp,128
     de8:	10090103          	lb	sp,256(s2)
     dec:	0100                	addi	s0,sp,128
     dee:	10090203          	lb	tp,256(s2)
     df2:	0100                	addi	s0,sp,128
     df4:	10090103          	lb	sp,256(s2)
     df8:	0100                	addi	s0,sp,128
     dfa:	10090103          	lb	sp,256(s2)
     dfe:	0100                	addi	s0,sp,128
     e00:	10090103          	lb	sp,256(s2)
     e04:	0100                	addi	s0,sp,128
     e06:	3705                	addiw	a4,a4,-31
     e08:	10090103          	lb	sp,256(s2)
     e0c:	0100                	addi	s0,sp,128
     e0e:	0505                	addi	a0,a0,1
     e10:	18090003          	lb	zero,384(s2)
     e14:	0100                	addi	s0,sp,128
     e16:	4d05                	li	s10,1
     e18:	14090003          	lb	zero,320(s2)
     e1c:	0100                	addi	s0,sp,128
     e1e:	0505                	addi	a0,a0,1
     e20:	18090003          	lb	zero,384(s2)
     e24:	0100                	addi	s0,sp,128
     e26:	0105                	addi	sp,sp,1
     e28:	28090103          	lb	sp,640(s2)
     e2c:	0100                	addi	s0,sp,128
     e2e:	1409                	addi	s0,s0,-30
     e30:	0000                	unimp
     e32:	0101                	addi	sp,sp,0
     e34:	1b05                	addi	s6,s6,-31
     e36:	0900                	addi	s0,sp,144
     e38:	b002                	fsd	ft0,32(sp)
     e3a:	e000200f          	0xe000200f
     e3e:	ffff                	0xffff
     e40:	03ff                	0x3ff
     e42:	050100f7          	0x50100f7
     e46:	0305                	addi	t1,t1,1
     e48:	0901                	addi	s2,s2,0
     e4a:	0010                	0x10
     e4c:	0301                	addi	t1,t1,0
     e4e:	0902                	c.slli64	s2
     e50:	000c                	0xc
     e52:	0501                	addi	a0,a0,0
     e54:	030c                	addi	a1,sp,384
     e56:	00140903          	lb	s2,1(s0)
     e5a:	0301                	addi	t1,t1,0
     e5c:	0901                	addi	s2,s2,0
     e5e:	000c                	0xc
     e60:	0301                	addi	t1,t1,0
     e62:	0901                	addi	s2,s2,0
     e64:	000c                	0xc
     e66:	0301                	addi	t1,t1,0
     e68:	0901                	addi	s2,s2,0
     e6a:	000c                	0xc
     e6c:	0301                	addi	t1,t1,0
     e6e:	0901                	addi	s2,s2,0
     e70:	000c                	0xc
     e72:	0301                	addi	t1,t1,0
     e74:	0901                	addi	s2,s2,0
     e76:	000c                	0xc
     e78:	0301                	addi	t1,t1,0
     e7a:	0901                	addi	s2,s2,0
     e7c:	000c                	0xc
     e7e:	0301                	addi	t1,t1,0
     e80:	0901                	addi	s2,s2,0
     e82:	000c                	0xc
     e84:	0501                	addi	a0,a0,0
     e86:	0305                	addi	t1,t1,1
     e88:	0902                	c.slli64	s2
     e8a:	000c                	0xc
     e8c:	0301                	addi	t1,t1,0
     e8e:	00340903          	lb	s2,3(s0)
     e92:	0301                	addi	t1,t1,0
     e94:	00340903          	lb	s2,3(s0)
     e98:	0301                	addi	t1,t1,0
     e9a:	0902                	c.slli64	s2
     e9c:	0034                	addi	a3,sp,8
     e9e:	0501                	addi	a0,a0,0
     ea0:	0331                	addi	t1,t1,12
     ea2:	00340903          	lb	s2,3(s0)
     ea6:	0501                	addi	a0,a0,0
     ea8:	09000347          	fmsub.s	ft6,ft0,fa6,ft1,rne
     eac:	0008                	0x8
     eae:	0501                	addi	a0,a0,0
     eb0:	030c                	addi	a1,sp,384
     eb2:	0900                	addi	s0,sp,144
     eb4:	0004                	0x4
     eb6:	0501                	addi	a0,a0,0
     eb8:	0305                	addi	t1,t1,1
     eba:	0901                	addi	s2,s2,0
     ebc:	0010                	0x10
     ebe:	0301                	addi	t1,t1,0
     ec0:	0906                	slli	s2,s2,0x1
     ec2:	0010                	0x10
     ec4:	0301                	addi	t1,t1,0
     ec6:	0901                	addi	s2,s2,0
     ec8:	0004                	0x4
     eca:	0501                	addi	a0,a0,0
     ecc:	0301                	addi	t1,t1,0
     ece:	0901                	addi	s2,s2,0
     ed0:	0004                	0x4
     ed2:	0901                	addi	s2,s2,0
     ed4:	0010                	0x10
     ed6:	0100                	addi	s0,sp,128
     ed8:	0501                	addi	a0,a0,0
     eda:	003d                	c.nop	15
     edc:	0209                	addi	tp,tp,2
     ede:	1154                	addi	a3,sp,164
     ee0:	0020                	addi	s0,sp,8
     ee2:	ffe0                	sd	s0,248(a5)
     ee4:	ffff                	0xffff
     ee6:	01019e03          	lh	t3,16(gp) # 4f4 <BASE_ADDR-0x801ffb0c>
     eea:	2205                	addiw	tp,tp,1
     eec:	20090103          	lb	sp,512(s2)
     ef0:	0100                	addi	s0,sp,128
     ef2:	0d05                	addi	s10,s10,1
     ef4:	08090003          	lb	zero,128(s2)
     ef8:	0100                	addi	s0,sp,128
     efa:	0805                	addi	a6,a6,1
     efc:	0c090403          	lb	s0,192(s2)
     f00:	0100                	addi	s0,sp,128
     f02:	1505                	addi	a0,a0,-31
     f04:	08090003          	lb	zero,128(s2)
     f08:	0100                	addi	s0,sp,128
     f0a:	0705                	addi	a4,a4,1
     f0c:	04090003          	lb	zero,64(s2)
     f10:	0100                	addi	s0,sp,128
     f12:	1e05                	addi	t3,t3,-31
     f14:	04090103          	lb	sp,64(s2)
     f18:	0100                	addi	s0,sp,128
     f1a:	2b05                	addiw	s6,s6,1
     f1c:	08090003          	lb	zero,128(s2)
     f20:	0100                	addi	s0,sp,128
     f22:	3205                	addiw	tp,tp,-31
     f24:	04090003          	lb	zero,64(s2)
     f28:	0100                	addi	s0,sp,128
     f2a:	1005                	c.nop	-31
     f2c:	08090003          	lb	zero,128(s2)
     f30:	0100                	addi	s0,sp,128
     f32:	2705                	addiw	a4,a4,1
     f34:	04090103          	lb	sp,64(s2)
     f38:	0100                	addi	s0,sp,128
     f3a:	1005                	c.nop	-31
     f3c:	08090003          	lb	zero,128(s2)
     f40:	0100                	addi	s0,sp,128
     f42:	1605                	addi	a2,a2,-31
     f44:	08090403          	lb	s0,128(s2)
     f48:	0100                	addi	s0,sp,128
     f4a:	1005                	c.nop	-31
     f4c:	08090103          	lb	sp,128(s2)
     f50:	0100                	addi	s0,sp,128
     f52:	1d05                	addi	s10,s10,-31
     f54:	08090103          	lb	sp,128(s2)
     f58:	0100                	addi	s0,sp,128
     f5a:	2c05                	addiw	s8,s8,1
     f5c:	08090003          	lb	zero,128(s2)
     f60:	0100                	addi	s0,sp,128
     f62:	2405                	addiw	s0,s0,1
     f64:	0c090003          	lb	zero,192(s2)
     f68:	0100                	addi	s0,sp,128
     f6a:	3205                	addiw	tp,tp,-31
     f6c:	04090003          	lb	zero,64(s2)
     f70:	0100                	addi	s0,sp,128
     f72:	1605                	addi	a2,a2,-31
     f74:	04090003          	lb	zero,64(s2)
     f78:	0100                	addi	s0,sp,128
     f7a:	0c05                	addi	s8,s8,1
     f7c:	08090203          	lb	tp,128(s2)
     f80:	0100                	addi	s0,sp,128
     f82:	0105                	addi	sp,sp,1
     f84:	04090103          	lb	sp,64(s2)
     f88:	0100                	addi	s0,sp,128
     f8a:	1409                	addi	s0,s0,-30
     f8c:	0000                	unimp
     f8e:	0101                	addi	sp,sp,0
     f90:	3f05                	addiw	t5,t5,-31
     f92:	0900                	addi	s0,sp,144
     f94:	0c02                	c.slli64	s8
     f96:	2012                	fld	ft0,256(sp)
     f98:	e000                	sd	s0,0(s0)
     f9a:	ffff                	0xffff
     f9c:	03ff                	0x3ff
     f9e:	01b0                	addi	a2,sp,200
     fa0:	0501                	addi	a0,a0,0
     fa2:	030d                	addi	t1,t1,3
     fa4:	0901                	addi	s2,s2,0
     fa6:	0020                	addi	s0,sp,8
     fa8:	0501                	addi	a0,a0,0
     faa:	032d                	addi	t1,t1,11
     fac:	00080903          	lb	s2,0(a6)
     fb0:	0501                	addi	a0,a0,0
     fb2:	0314                	addi	a3,sp,384
     fb4:	0900                	addi	s0,sp,144
     fb6:	0004                	0x4
     fb8:	0501                	addi	a0,a0,0
     fba:	0328                	addi	a0,sp,392
     fbc:	0901                	addi	s2,s2,0
     fbe:	0018                	0x18
     fc0:	0501                	addi	a0,a0,0
     fc2:	030e                	slli	t1,t1,0x3
     fc4:	0900                	addi	s0,sp,144
     fc6:	0014                	0x14
     fc8:	0501                	addi	a0,a0,0
     fca:	0328                	addi	a0,sp,392
     fcc:	0901                	addi	s2,s2,0
     fce:	001c                	0x1c
     fd0:	0501                	addi	a0,a0,0
     fd2:	030e                	slli	t1,t1,0x3
     fd4:	0900                	addi	s0,sp,144
     fd6:	0014                	0x14
     fd8:	0501                	addi	a0,a0,0
     fda:	09030317          	auipc	t1,0x9030
     fde:	001c                	0x1c
     fe0:	0501                	addi	a0,a0,0
     fe2:	09000313          	li	t1,144
     fe6:	0014                	0x14
     fe8:	0501                	addi	a0,a0,0
     fea:	030c                	addi	a1,sp,384
     fec:	0900                	addi	s0,sp,144
     fee:	0004                	0x4
     ff0:	0501                	addi	a0,a0,0
     ff2:	0301                	addi	t1,t1,0
     ff4:	0901                	addi	s2,s2,0
     ff6:	0008                	0x8
     ff8:	0901                	addi	s2,s2,0
     ffa:	0014                	0x14
     ffc:	0100                	addi	s0,sp,128
     ffe:	0501                	addi	a0,a0,0
    1000:	0209004f          	fnmadd.d	ft0,fs2,ft0,ft0,rne
    1004:	12e4                	addi	s1,sp,364
    1006:	0020                	addi	s0,sp,8
    1008:	ffe0                	sd	s0,248(a5)
    100a:	ffff                	0xffff
    100c:	0101be03          	ld	t3,16(gp)
    1010:	1a05                	addi	s4,s4,-31
    1012:	28090b03          	lb	s6,640(s2)
    1016:	0100                	addi	s0,sp,128
    1018:	0c05                	addi	s8,s8,1
    101a:	0c090003          	lb	zero,192(s2)
    101e:	0100                	addi	s0,sp,128
    1020:	0505                	addi	a0,a0,1
    1022:	08090103          	lb	sp,128(s2)
    1026:	0100                	addi	s0,sp,128
    1028:	1f05                	addi	t5,t5,-31
    102a:	0200                	addi	s0,sp,256
    102c:	0204                	addi	s1,sp,256
    102e:	04090103          	lb	sp,64(s2)
    1032:	0100                	addi	s0,sp,128
    1034:	1005                	c.nop	-31
    1036:	0200                	addi	s0,sp,256
    1038:	0204                	addi	s1,sp,256
    103a:	18090103          	lb	sp,384(s2)
    103e:	0100                	addi	s0,sp,128
    1040:	1905                	addi	s2,s2,-31
    1042:	0200                	addi	s0,sp,256
    1044:	0204                	addi	s1,sp,256
    1046:	0c090103          	lb	sp,192(s2)
    104a:	0100                	addi	s0,sp,128
    104c:	2605                	addiw	a2,a2,1
    104e:	0200                	addi	s0,sp,256
    1050:	0204                	addi	s1,sp,256
    1052:	08090003          	lb	zero,128(s2)
    1056:	0100                	addi	s0,sp,128
    1058:	4305                	li	t1,1
    105a:	0200                	addi	s0,sp,256
    105c:	0204                	addi	s1,sp,256
    105e:	0c090003          	lb	zero,192(s2)
    1062:	0100                	addi	s0,sp,128
    1064:	3c05                	addiw	s8,s8,-31
    1066:	0200                	addi	s0,sp,256
    1068:	0204                	addi	s1,sp,256
    106a:	08090003          	lb	zero,128(s2)
    106e:	0100                	addi	s0,sp,128
    1070:	4a05                	li	s4,1
    1072:	0200                	addi	s0,sp,256
    1074:	0204                	addi	s1,sp,256
    1076:	04090003          	lb	zero,64(s2)
    107a:	0100                	addi	s0,sp,128
    107c:	5105                	li	sp,-31
    107e:	0200                	addi	s0,sp,256
    1080:	0204                	addi	s1,sp,256
    1082:	08090003          	lb	zero,128(s2)
    1086:	0100                	addi	s0,sp,128
    1088:	1605                	addi	a2,a2,-31
    108a:	0200                	addi	s0,sp,256
    108c:	0204                	addi	s1,sp,256
    108e:	04090003          	lb	zero,64(s2)
    1092:	0100                	addi	s0,sp,128
    1094:	1e05                	addi	t3,t3,-31
    1096:	0200                	addi	s0,sp,256
    1098:	0204                	addi	s1,sp,256
    109a:	08097d03          	0x8097d03
    109e:	0100                	addi	s0,sp,128
    10a0:	2c05                	addiw	s8,s8,1
    10a2:	0200                	addi	s0,sp,256
    10a4:	0204                	addi	s1,sp,256
    10a6:	10090003          	lb	zero,256(s2)
    10aa:	0100                	addi	s0,sp,128
    10ac:	0e05                	addi	t3,t3,1
    10ae:	0200                	addi	s0,sp,256
    10b0:	0104                	addi	s1,sp,128
    10b2:	10090003          	lb	zero,256(s2)
    10b6:	0100                	addi	s0,sp,128
    10b8:	0105                	addi	sp,sp,1
    10ba:	0c090503          	lb	a0,192(s2)
    10be:	0100                	addi	s0,sp,128
    10c0:	1809                	addi	a6,a6,-30
    10c2:	0000                	unimp
    10c4:	0101                	addi	sp,sp,0
    10c6:	00000073          	ecall
    10ca:	0005                	c.nop	1
    10cc:	0008                	0x8
    10ce:	00000033          	add	zero,zero,zero
    10d2:	0101                	addi	sp,sp,0
    10d4:	fb01                	bnez	a4,fe4 <BASE_ADDR-0x801ff01c>
    10d6:	0d0e                	slli	s10,s10,0x3
    10d8:	0100                	addi	s0,sp,128
    10da:	0101                	addi	sp,sp,0
    10dc:	0001                	nop
    10de:	0000                	unimp
    10e0:	0001                	nop
    10e2:	0100                	addi	s0,sp,128
    10e4:	0101                	addi	sp,sp,0
    10e6:	021f 00ea 0000      	0xea021f
    10ec:	0088                	addi	a0,sp,64
    10ee:	0000                	unimp
    10f0:	0102                	c.slli64	sp
    10f2:	021f 030f 010b      	0x10b030f021f
    10f8:	0000                	unimp
    10fa:	0b00                	addi	s0,sp,400
    10fc:	0001                	nop
    10fe:	0000                	unimp
    1100:	00b1                	addi	ra,ra,12
    1102:	0000                	unimp
    1104:	0501                	addi	a0,a0,0
    1106:	0014                	0x14
    1108:	0209                	addi	tp,tp,2
    110a:	13c0                	addi	s0,sp,484
    110c:	0020                	addi	s0,sp,8
    110e:	ffe0                	sd	s0,248(a5)
    1110:	ffff                	0xffff
    1112:	0518                	addi	a4,sp,640
    1114:	0305                	addi	t1,t1,1
    1116:	0904                	addi	s1,sp,144
    1118:	0010                	0x10
    111a:	0301                	addi	t1,t1,0
    111c:	0901                	addi	s2,s2,0
    111e:	0010                	0x10
    1120:	0301                	addi	t1,t1,0
    1122:	000c0903          	lb	s2,0(s8) # 19000 <BASE_ADDR-0x801e7000>
    1126:	0501                	addi	a0,a0,0
    1128:	0309                	addi	t1,t1,2
    112a:	0902                	c.slli64	s2
    112c:	0004                	0x4
    112e:	0501                	addi	a0,a0,0
    1130:	0301                	addi	t1,t1,0
    1132:	0901                	addi	s2,s2,0
    1134:	0004                	0x4
    1136:	0901                	addi	s2,s2,0
    1138:	0014                	0x14
    113a:	0100                	addi	s0,sp,128
    113c:	8701                	c.srai64	a4
    113e:	0000                	unimp
    1140:	0500                	addi	s0,sp,640
    1142:	0800                	addi	s0,sp,16
    1144:	3300                	fld	fs0,32(a4)
    1146:	0000                	unimp
    1148:	0100                	addi	s0,sp,128
    114a:	0101                	addi	sp,sp,0
    114c:	000d0efb          	0xd0efb
    1150:	0101                	addi	sp,sp,0
    1152:	0101                	addi	sp,sp,0
    1154:	0000                	unimp
    1156:	0100                	addi	s0,sp,128
    1158:	0000                	unimp
    115a:	0101                	addi	sp,sp,0
    115c:	1f01                	addi	t5,t5,-32
    115e:	ea02                	sd	zero,272(sp)
    1160:	0000                	unimp
    1162:	8800                	0x8800
    1164:	0000                	unimp
    1166:	0200                	addi	s0,sp,256
    1168:	1f01                	addi	t5,t5,-32
    116a:	0f02                	c.slli64	t5
    116c:	00011203          	lh	tp,0(sp)
    1170:	0000                	unimp
    1172:	0112                	slli	sp,sp,0x4
    1174:	0000                	unimp
    1176:	b100                	fsd	fs0,32(a0)
    1178:	0000                	unimp
    117a:	0100                	addi	s0,sp,128
    117c:	0105                	addi	sp,sp,1
    117e:	0900                	addi	s0,sp,144
    1180:	0802                	c.slli64	a6
    1182:	2014                	fld	fa3,0(s0)
    1184:	e000                	sd	s0,0(s0)
    1186:	ffff                	0xffff
    1188:	18ff                	0x18ff
    118a:	0905                	addi	s2,s2,1
    118c:	10090103          	lb	sp,256(s2)
    1190:	0100                	addi	s0,sp,128
    1192:	0c05                	addi	s8,s8,1
    1194:	04090303          	lb	t1,64(s2)
    1198:	0100                	addi	s0,sp,128
    119a:	1105                	addi	sp,sp,-31
    119c:	0c090003          	lb	zero,192(s2)
    11a0:	0100                	addi	s0,sp,128
    11a2:	0c05                	addi	s8,s8,1
    11a4:	18090003          	lb	zero,384(s2)
    11a8:	0100                	addi	s0,sp,128
    11aa:	0f05                	addi	t5,t5,1
    11ac:	04090203          	lb	tp,64(s2)
    11b0:	0100                	addi	s0,sp,128
    11b2:	0d05                	addi	s10,s10,1
    11b4:	04090103          	lb	sp,64(s2)
    11b8:	0100                	addi	s0,sp,128
    11ba:	0c05                	addi	s8,s8,1
    11bc:	0c097d03          	0xc097d03
    11c0:	0100                	addi	s0,sp,128
    11c2:	0409                	addi	s0,s0,2
    11c4:	0000                	unimp
    11c6:	0101                	addi	sp,sp,0
    11c8:	0138                	addi	a4,sp,136
    11ca:	0000                	unimp
    11cc:	0005                	c.nop	1
    11ce:	0008                	0x8
    11d0:	0038                	addi	a4,sp,8
    11d2:	0000                	unimp
    11d4:	0101                	addi	sp,sp,0
    11d6:	fb01                	bnez	a4,10e6 <BASE_ADDR-0x801fef1a>
    11d8:	0d0e                	slli	s10,s10,0x3
    11da:	0100                	addi	s0,sp,128
    11dc:	0101                	addi	sp,sp,0
    11de:	0001                	nop
    11e0:	0000                	unimp
    11e2:	0001                	nop
    11e4:	0100                	addi	s0,sp,128
    11e6:	0101                	addi	sp,sp,0
    11e8:	021f 0119 0000      	0x119021f
    11ee:	0036                	c.slli	zero,0xd
    11f0:	0000                	unimp
    11f2:	0102                	c.slli64	sp
    11f4:	021f 040f 0139      	0x139040f021f
    11fa:	0000                	unimp
    11fc:	3900                	fld	fs0,48(a0)
    11fe:	0001                	nop
    1200:	0000                	unimp
    1202:	0065                	c.nop	25
    1204:	0000                	unimp
    1206:	6b01                	0x6b01
    1208:	0000                	unimp
    120a:	0100                	addi	s0,sp,128
    120c:	1405                	addi	s0,s0,-31
    120e:	0900                	addi	s0,sp,144
    1210:	5802                	lw	a6,32(sp)
    1212:	2014                	fld	fa3,0(s0)
    1214:	e000                	sd	s0,0(s0)
    1216:	ffff                	0xffff
    1218:	15ff                	0x15ff
    121a:	0b05                	addi	s6,s6,1
    121c:	14090103          	lb	sp,320(s2)
    1220:	0100                	addi	s0,sp,128
    1222:	2305                	addiw	t1,t1,1
    1224:	04090103          	lb	sp,64(s2)
    1228:	0100                	addi	s0,sp,128
    122a:	0905                	addi	s2,s2,1
    122c:	08090003          	lb	zero,128(s2)
    1230:	0100                	addi	s0,sp,128
    1232:	0a05                	addi	s4,s4,1
    1234:	24090103          	lb	sp,576(s2)
    1238:	0100                	addi	s0,sp,128
    123a:	0c05                	addi	s8,s8,1
    123c:	0c097e03          	0xc097e03
    1240:	0100                	addi	s0,sp,128
    1242:	0105                	addi	sp,sp,1
    1244:	0c090403          	lb	s0,192(s2)
    1248:	0100                	addi	s0,sp,128
    124a:	1809                	addi	a6,a6,-30
    124c:	0000                	unimp
    124e:	0101                	addi	sp,sp,0
    1250:	1205                	addi	tp,tp,-31
    1252:	0900                	addi	s0,sp,144
    1254:	cc02                	sw	zero,24(sp)
    1256:	2014                	fld	fa3,0(s0)
    1258:	e000                	sd	s0,0(s0)
    125a:	ffff                	0xffff
    125c:	03ff                	0x3ff
    125e:	010a                	slli	sp,sp,0x2
    1260:	0905                	addi	s2,s2,1
    1262:	18090203          	lb	tp,384(s2)
    1266:	0100                	addi	s0,sp,128
    1268:	0805                	addi	a6,a6,1
    126a:	04090103          	lb	sp,64(s2)
    126e:	0100                	addi	s0,sp,128
    1270:	0905                	addi	s2,s2,1
    1272:	0c090103          	lb	sp,192(s2)
    1276:	0100                	addi	s0,sp,128
    1278:	0805                	addi	a6,a6,1
    127a:	28090303          	lb	t1,640(s2)
    127e:	0100                	addi	s0,sp,128
    1280:	0905                	addi	s2,s2,1
    1282:	0c090103          	lb	sp,192(s2)
    1286:	0100                	addi	s0,sp,128
    1288:	0b05                	addi	s6,s6,1
    128a:	24090103          	lb	sp,576(s2)
    128e:	0100                	addi	s0,sp,128
    1290:	0c090203          	lb	tp,192(s2)
    1294:	0100                	addi	s0,sp,128
    1296:	1a05                	addi	s4,s4,-31
    1298:	04090103          	lb	sp,64(s2)
    129c:	0100                	addi	s0,sp,128
    129e:	1605                	addi	a2,a2,-31
    12a0:	14090003          	lb	zero,320(s2)
    12a4:	0100                	addi	s0,sp,128
    12a6:	0c05                	addi	s8,s8,1
    12a8:	04090003          	lb	zero,64(s2)
    12ac:	0100                	addi	s0,sp,128
    12ae:	1605                	addi	a2,a2,-31
    12b0:	0c090003          	lb	zero,192(s2)
    12b4:	0100                	addi	s0,sp,128
    12b6:	1005                	c.nop	-31
    12b8:	08090003          	lb	zero,128(s2)
    12bc:	0100                	addi	s0,sp,128
    12be:	0b05                	addi	s6,s6,1
    12c0:	0c090103          	lb	sp,192(s2)
    12c4:	0100                	addi	s0,sp,128
    12c6:	0c05                	addi	s8,s8,1
    12c8:	14097e03          	0x14097e03
    12cc:	0100                	addi	s0,sp,128
    12ce:	0b05                	addi	s6,s6,1
    12d0:	0c090403          	lb	s0,192(s2)
    12d4:	0100                	addi	s0,sp,128
    12d6:	0905                	addi	s2,s2,1
    12d8:	04090103          	lb	sp,64(s2)
    12dc:	0100                	addi	s0,sp,128
    12de:	2405                	addiw	s0,s0,1
    12e0:	0c090003          	lb	zero,192(s2)
    12e4:	0100                	addi	s0,sp,128
    12e6:	0905                	addi	s2,s2,1
    12e8:	10090003          	lb	zero,256(s2)
    12ec:	0100                	addi	s0,sp,128
    12ee:	0c05                	addi	s8,s8,1
    12f0:	24097f03          	0x24097f03
    12f4:	0100                	addi	s0,sp,128
    12f6:	0105                	addi	sp,sp,1
    12f8:	0c090303          	lb	t1,192(s2)
    12fc:	0100                	addi	s0,sp,128
    12fe:	1009                	c.nop	-30
    1300:	0000                	unimp
    1302:	0101                	addi	sp,sp,0
    1304:	04de                	slli	s1,s1,0x17
    1306:	0000                	unimp
    1308:	0005                	c.nop	1
    130a:	0008                	0x8
    130c:	0041                	c.nop	16
    130e:	0000                	unimp
    1310:	0101                	addi	sp,sp,0
    1312:	fb01                	bnez	a4,1222 <BASE_ADDR-0x801fedde>
    1314:	0d0e                	slli	s10,s10,0x3
    1316:	0100                	addi	s0,sp,128
    1318:	0101                	addi	sp,sp,0
    131a:	0001                	nop
    131c:	0000                	unimp
    131e:	0001                	nop
    1320:	0100                	addi	s0,sp,128
    1322:	0101                	addi	sp,sp,0
    1324:	031f 0119 0000      	0x119031f
    132a:	0088                	addi	a0,sp,64
    132c:	0000                	unimp
    132e:	0036                	c.slli	zero,0xd
    1330:	0000                	unimp
    1332:	0102                	c.slli64	sp
    1334:	021f 050f 0141      	0x141050f021f
    133a:	0000                	unimp
    133c:	4100                	lw	s0,0(a0)
    133e:	0001                	nop
    1340:	0000                	unimp
    1342:	014a                	slli	sp,sp,0x12
    1344:	0000                	unimp
    1346:	6b01                	0x6b01
    1348:	0000                	unimp
    134a:	0200                	addi	s0,sp,256
    134c:	0065                	c.nop	25
    134e:	0000                	unimp
    1350:	0502                	c.slli64	a0
    1352:	02090013          	addi	zero,s2,32
    1356:	1614                	addi	a3,sp,800
    1358:	0020                	addi	s0,sp,8
    135a:	ffe0                	sd	s0,248(a5)
    135c:	ffff                	0xffff
    135e:	0515                	addi	a0,a0,5
    1360:	09010303          	lb	t1,144(sp)
    1364:	0018                	0x18
    1366:	0501                	addi	a0,a0,0
    1368:	0301                	addi	t1,t1,0
    136a:	0901                	addi	s2,s2,0
    136c:	0024                	addi	s1,sp,8
    136e:	0901                	addi	s2,s2,0
    1370:	0014                	0x14
    1372:	0100                	addi	s0,sp,128
    1374:	0501                	addi	a0,a0,0
    1376:	02090047          	fmsub.d	ft0,fs2,ft0,ft0,rne
    137a:	1664                	addi	s1,sp,812
    137c:	0020                	addi	s0,sp,8
    137e:	ffe0                	sd	s0,248(a5)
    1380:	ffff                	0xffff
    1382:	0519                	addi	a0,a0,6
    1384:	0309                	addi	t1,t1,2
    1386:	0901                	addi	s2,s2,0
    1388:	001c                	0x1c
    138a:	0501                	addi	a0,a0,0
    138c:	0318                	addi	a4,sp,384
    138e:	0900                	addi	s0,sp,144
    1390:	0004                	0x4
    1392:	0501                	addi	a0,a0,0
    1394:	030c                	addi	a1,sp,384
    1396:	0901                	addi	s2,s2,0
    1398:	0004                	0x4
    139a:	0501                	addi	a0,a0,0
    139c:	0305                	addi	t1,t1,1
    139e:	0901                	addi	s2,s2,0
    13a0:	0004                	0x4
    13a2:	0501                	addi	a0,a0,0
    13a4:	030c                	addi	a1,sp,384
    13a6:	0901                	addi	s2,s2,0
    13a8:	0004                	0x4
    13aa:	0501                	addi	a0,a0,0
    13ac:	0314                	addi	a3,sp,384
    13ae:	0901                	addi	s2,s2,0
    13b0:	000c                	0xc
    13b2:	0501                	addi	a0,a0,0
    13b4:	030d                	addi	t1,t1,3
    13b6:	0900                	addi	s0,sp,144
    13b8:	000c                	0xc
    13ba:	0501                	addi	a0,a0,0
    13bc:	031d                	addi	t1,t1,7
    13be:	0902                	c.slli64	s2
    13c0:	0040                	addi	s0,sp,4
    13c2:	0501                	addi	a0,a0,0
    13c4:	0315                	addi	t1,t1,5
    13c6:	0901                	addi	s2,s2,0
    13c8:	0008                	0x8
    13ca:	0501                	addi	a0,a0,0
    13cc:	0904033b          	add.uw	t1,s0,a6
    13d0:	0004                	0x4
    13d2:	0501                	addi	a0,a0,0
    13d4:	033d                	addi	t1,t1,15
    13d6:	0900                	addi	s0,sp,144
    13d8:	0020                	addi	s0,sp,8
    13da:	0501                	addi	a0,a0,0
    13dc:	001a                	c.slli	zero,0x6
    13de:	0402                	c.slli64	s0
    13e0:	0304                	addi	s1,sp,384
    13e2:	0900                	addi	s0,sp,144
    13e4:	0010                	0x10
    13e6:	0501                	addi	a0,a0,0
    13e8:	0019                	c.nop	6
    13ea:	0402                	c.slli64	s0
    13ec:	0304                	addi	s1,sp,384
    13ee:	0902                	c.slli64	s2
    13f0:	0004                	0x4
    13f2:	0001                	nop
    13f4:	0402                	c.slli64	s0
    13f6:	0601                	addi	a2,a2,0
    13f8:	0c090003          	lb	zero,192(s2)
    13fc:	0100                	addi	s0,sp,128
    13fe:	0200                	addi	s0,sp,256
    1400:	0204                	addi	s1,sp,256
    1402:	08090003          	lb	zero,128(s2)
    1406:	0100                	addi	s0,sp,128
    1408:	0200                	addi	s0,sp,256
    140a:	0404                	addi	s1,sp,512
    140c:	04090003          	lb	zero,64(s2)
    1410:	0100                	addi	s0,sp,128
    1412:	1d05                	addi	s10,s10,-31
    1414:	0200                	addi	s0,sp,256
    1416:	0404                	addi	s1,sp,512
    1418:	0306                	slli	t1,t1,0x1
    141a:	0901                	addi	s2,s2,0
    141c:	0004                	0x4
    141e:	0501                	addi	a0,a0,0
    1420:	0015                	c.nop	5
    1422:	0402                	c.slli64	s0
    1424:	0304                	addi	s1,sp,384
    1426:	0900                	addi	s0,sp,144
    1428:	0008                	0x8
    142a:	0501                	addi	a0,a0,0
    142c:	032d                	addi	t1,t1,11
    142e:	0901                	addi	s2,s2,0
    1430:	0004                	0x4
    1432:	0501                	addi	a0,a0,0
    1434:	0328                	addi	a0,sp,392
    1436:	0900                	addi	s0,sp,144
    1438:	000c                	0xc
    143a:	0501                	addi	a0,a0,0
    143c:	0339                	addi	t1,t1,14
    143e:	0900                	addi	s0,sp,144
    1440:	0008                	0x8
    1442:	0501                	addi	a0,a0,0
    1444:	031d                	addi	t1,t1,7
    1446:	0900                	addi	s0,sp,144
    1448:	0004                	0x4
    144a:	0501                	addi	a0,a0,0
    144c:	031e                	slli	t1,t1,0x7
    144e:	0901                	addi	s2,s2,0
    1450:	0008                	0x8
    1452:	0501                	addi	a0,a0,0
    1454:	0038                	addi	a4,sp,8
    1456:	0402                	c.slli64	s0
    1458:	0301                	addi	t1,t1,0
    145a:	0900                	addi	s0,sp,144
    145c:	0010                	0x10
    145e:	0501                	addi	a0,a0,0
    1460:	001e                	c.slli	zero,0x7
    1462:	0402                	c.slli64	s0
    1464:	0301                	addi	t1,t1,0
    1466:	0900                	addi	s0,sp,144
    1468:	0008                	0x8
    146a:	0501                	addi	a0,a0,0
    146c:	004a                	c.slli	zero,0x12
    146e:	0402                	c.slli64	s0
    1470:	0302                	c.slli64	t1
    1472:	0900                	addi	s0,sp,144
    1474:	000c                	0xc
    1476:	0501                	addi	a0,a0,0
    1478:	001e                	c.slli	zero,0x7
    147a:	0402                	c.slli64	s0
    147c:	0302                	c.slli64	t1
    147e:	0900                	addi	s0,sp,144
    1480:	0008                	0x8
    1482:	0001                	nop
    1484:	0402                	c.slli64	s0
    1486:	0604                	addi	s1,sp,768
    1488:	08090003          	lb	zero,128(s2)
    148c:	0100                	addi	s0,sp,128
    148e:	1905                	addi	s2,s2,-31
    1490:	0200                	addi	s0,sp,256
    1492:	0404                	addi	s1,sp,512
    1494:	0306                	slli	t1,t1,0x1
    1496:	0901                	addi	s2,s2,0
    1498:	0004                	0x4
    149a:	0501                	addi	a0,a0,0
    149c:	001c                	0x1c
    149e:	0402                	c.slli64	s0
    14a0:	0304                	addi	s1,sp,384
    14a2:	0901                	addi	s2,s2,0
    14a4:	0010                	0x10
    14a6:	0501                	addi	a0,a0,0
    14a8:	004a                	c.slli	zero,0x12
    14aa:	0402                	c.slli64	s0
    14ac:	0304                	addi	s1,sp,384
    14ae:	097c                	addi	a5,sp,156
    14b0:	000c                	0xc
    14b2:	0501                	addi	a0,a0,0
    14b4:	003c                	addi	a5,sp,8
    14b6:	0402                	c.slli64	s0
    14b8:	0302                	c.slli64	t1
    14ba:	0900                	addi	s0,sp,144
    14bc:	000c                	0xc
    14be:	0501                	addi	a0,a0,0
    14c0:	031d                	addi	t1,t1,7
    14c2:	0906                	slli	s2,s2,0x1
    14c4:	000c                	0xc
    14c6:	0501                	addi	a0,a0,0
    14c8:	032c                	addi	a1,sp,392
    14ca:	0900                	addi	s0,sp,144
    14cc:	0004                	0x4
    14ce:	0501                	addi	a0,a0,0
    14d0:	0315                	addi	t1,t1,5
    14d2:	0901                	addi	s2,s2,0
    14d4:	0004                	0x4
    14d6:	0501                	addi	a0,a0,0
    14d8:	0904033b          	add.uw	t1,s0,a6
    14dc:	0004                	0x4
    14de:	0501                	addi	a0,a0,0
    14e0:	033d                	addi	t1,t1,15
    14e2:	0900                	addi	s0,sp,144
    14e4:	0020                	addi	s0,sp,8
    14e6:	0501                	addi	a0,a0,0
    14e8:	001a                	c.slli	zero,0x6
    14ea:	0402                	c.slli64	s0
    14ec:	0304                	addi	s1,sp,384
    14ee:	0900                	addi	s0,sp,144
    14f0:	0010                	0x10
    14f2:	0501                	addi	a0,a0,0
    14f4:	0018                	0x18
    14f6:	0402                	c.slli64	s0
    14f8:	0304                	addi	s1,sp,384
    14fa:	0901                	addi	s2,s2,0
    14fc:	0004                	0x4
    14fe:	0501                	addi	a0,a0,0
    1500:	031d                	addi	t1,t1,7
    1502:	0901                	addi	s2,s2,0
    1504:	0008                	0x8
    1506:	0501                	addi	a0,a0,0
    1508:	0325                	addi	t1,t1,9
    150a:	0900                	addi	s0,sp,144
    150c:	000c                	0xc
    150e:	0501                	addi	a0,a0,0
    1510:	031c                	addi	a5,sp,384
    1512:	0901                	addi	s2,s2,0
    1514:	000c                	0xc
    1516:	0501                	addi	a0,a0,0
    1518:	0319                	addi	t1,t1,6
    151a:	0902                	c.slli64	s2
    151c:	000c                	0xc
    151e:	0501                	addi	a0,a0,0
    1520:	031a                	slli	t1,t1,0x6
    1522:	0901                	addi	s2,s2,0
    1524:	0004                	0x4
    1526:	0501                	addi	a0,a0,0
    1528:	031f 0901 0014      	0x140901031f
    152e:	0501                	addi	a0,a0,0
    1530:	0315                	addi	t1,t1,5
    1532:	0900                	addi	s0,sp,144
    1534:	0008                	0x8
    1536:	0501                	addi	a0,a0,0
    1538:	002e                	c.slli	zero,0xb
    153a:	0402                	c.slli64	s0
    153c:	09010303          	lb	t1,144(sp)
    1540:	0004                	0x4
    1542:	0501                	addi	a0,a0,0
    1544:	0034                	addi	a3,sp,8
    1546:	0402                	c.slli64	s0
    1548:	09000303          	lb	t1,144(zero) # 90 <BASE_ADDR-0x801fff70>
    154c:	000c                	0xc
    154e:	0501                	addi	a0,a0,0
    1550:	04020027          	0x4020027
    1554:	09000303          	lb	t1,144(zero) # 90 <BASE_ADDR-0x801fff70>
    1558:	000c                	0xc
    155a:	0501                	addi	a0,a0,0
    155c:	001d                	c.nop	7
    155e:	0402                	c.slli64	s0
    1560:	09010303          	lb	t1,144(sp)
    1564:	0010                	0x10
    1566:	0501                	addi	a0,a0,0
    1568:	04020033          	0x4020033
    156c:	097e0303          	lb	t1,151(t3) # 1a097 <BASE_ADDR-0x801e5f69>
    1570:	0010                	0x10
    1572:	0501                	addi	a0,a0,0
    1574:	002a                	c.slli	zero,0xa
    1576:	0402                	c.slli64	s0
    1578:	0301                	addi	t1,t1,0
    157a:	0900                	addi	s0,sp,144
    157c:	000c                	0xc
    157e:	0501                	addi	a0,a0,0
    1580:	031e                	slli	t1,t1,0x7
    1582:	0905                	addi	s2,s2,1
    1584:	0008                	0x8
    1586:	0501                	addi	a0,a0,0
    1588:	0315                	addi	t1,t1,5
    158a:	0900                	addi	s0,sp,144
    158c:	0008                	0x8
    158e:	0501                	addi	a0,a0,0
    1590:	0019                	c.nop	6
    1592:	0402                	c.slli64	s0
    1594:	09010303          	lb	t1,144(sp)
    1598:	0004                	0x4
    159a:	0501                	addi	a0,a0,0
    159c:	0031                	c.nop	12
    159e:	0402                	c.slli64	s0
    15a0:	097f0303          	lb	t1,151(t5) # 1a097 <BASE_ADDR-0x801e5f69>
    15a4:	001c                	0x1c
    15a6:	0501                	addi	a0,a0,0
    15a8:	002a                	c.slli	zero,0xa
    15aa:	0402                	c.slli64	s0
    15ac:	0301                	addi	t1,t1,0
    15ae:	0900                	addi	s0,sp,144
    15b0:	000c                	0xc
    15b2:	0501                	addi	a0,a0,0
    15b4:	0321                	addi	t1,t1,8
    15b6:	000c0903          	lb	s2,0(s8)
    15ba:	0501                	addi	a0,a0,0
    15bc:	0319                	addi	t1,t1,6
    15be:	0900                	addi	s0,sp,144
    15c0:	0010                	0x10
    15c2:	0501                	addi	a0,a0,0
    15c4:	031d                	addi	t1,t1,7
    15c6:	0901                	addi	s2,s2,0
    15c8:	000c                	0xc
    15ca:	0501                	addi	a0,a0,0
    15cc:	032c                	addi	a1,sp,392
    15ce:	0900                	addi	s0,sp,144
    15d0:	0004                	0x4
    15d2:	0501                	addi	a0,a0,0
    15d4:	0315                	addi	t1,t1,5
    15d6:	0901                	addi	s2,s2,0
    15d8:	0004                	0x4
    15da:	0501                	addi	a0,a0,0
    15dc:	0344                	addi	s1,sp,388
    15de:	0904                	addi	s1,sp,144
    15e0:	0004                	0x4
    15e2:	0501                	addi	a0,a0,0
    15e4:	09000333          	0x9000333
    15e8:	000c                	0xc
    15ea:	0501                	addi	a0,a0,0
    15ec:	0346                	slli	t1,t1,0x11
    15ee:	0900                	addi	s0,sp,144
    15f0:	0014                	0x14
    15f2:	0501                	addi	a0,a0,0
    15f4:	04020023          	sb	zero,64(tp) # 40 <BASE_ADDR-0x801fffc0>
    15f8:	0304                	addi	s1,sp,384
    15fa:	0900                	addi	s0,sp,144
    15fc:	0010                	0x10
    15fe:	0501                	addi	a0,a0,0
    1600:	0019                	c.nop	6
    1602:	0402                	c.slli64	s0
    1604:	0304                	addi	s1,sp,384
    1606:	0901                	addi	s2,s2,0
    1608:	0004                	0x4
    160a:	0501                	addi	a0,a0,0
    160c:	001a                	c.slli	zero,0x6
    160e:	0402                	c.slli64	s0
    1610:	0304                	addi	s1,sp,384
    1612:	0901                	addi	s2,s2,0
    1614:	0004                	0x4
    1616:	0501                	addi	a0,a0,0
    1618:	001f 0402 0304      	0x3040402001f
    161e:	0901                	addi	s2,s2,0
    1620:	0014                	0x14
    1622:	0501                	addi	a0,a0,0
    1624:	0015                	c.nop	5
    1626:	0402                	c.slli64	s0
    1628:	0304                	addi	s1,sp,384
    162a:	0900                	addi	s0,sp,144
    162c:	0008                	0x8
    162e:	0501                	addi	a0,a0,0
    1630:	002e                	c.slli	zero,0xb
    1632:	0402                	c.slli64	s0
    1634:	09010303          	lb	t1,144(sp)
    1638:	0004                	0x4
    163a:	0501                	addi	a0,a0,0
    163c:	0034                	addi	a3,sp,8
    163e:	0402                	c.slli64	s0
    1640:	09000303          	lb	t1,144(zero) # 90 <BASE_ADDR-0x801fff70>
    1644:	000c                	0xc
    1646:	0501                	addi	a0,a0,0
    1648:	04020027          	0x4020027
    164c:	09000303          	lb	t1,144(zero) # 90 <BASE_ADDR-0x801fff70>
    1650:	000c                	0xc
    1652:	0501                	addi	a0,a0,0
    1654:	001d                	c.nop	7
    1656:	0402                	c.slli64	s0
    1658:	09010303          	lb	t1,144(sp)
    165c:	0010                	0x10
    165e:	0501                	addi	a0,a0,0
    1660:	04020033          	0x4020033
    1664:	097e0303          	lb	t1,151(t3)
    1668:	0010                	0x10
    166a:	0501                	addi	a0,a0,0
    166c:	002a                	c.slli	zero,0xa
    166e:	0402                	c.slli64	s0
    1670:	0301                	addi	t1,t1,0
    1672:	0900                	addi	s0,sp,144
    1674:	000c                	0xc
    1676:	0501                	addi	a0,a0,0
    1678:	031e                	slli	t1,t1,0x7
    167a:	0905                	addi	s2,s2,1
    167c:	0008                	0x8
    167e:	0501                	addi	a0,a0,0
    1680:	0315                	addi	t1,t1,5
    1682:	0900                	addi	s0,sp,144
    1684:	0008                	0x8
    1686:	0501                	addi	a0,a0,0
    1688:	0019                	c.nop	6
    168a:	0402                	c.slli64	s0
    168c:	09010303          	lb	t1,144(sp)
    1690:	0004                	0x4
    1692:	0501                	addi	a0,a0,0
    1694:	0031                	c.nop	12
    1696:	0402                	c.slli64	s0
    1698:	097f0303          	lb	t1,151(t5)
    169c:	001c                	0x1c
    169e:	0501                	addi	a0,a0,0
    16a0:	002a                	c.slli	zero,0xa
    16a2:	0402                	c.slli64	s0
    16a4:	0301                	addi	t1,t1,0
    16a6:	0900                	addi	s0,sp,144
    16a8:	000c                	0xc
    16aa:	0501                	addi	a0,a0,0
    16ac:	0321                	addi	t1,t1,8
    16ae:	000c0903          	lb	s2,0(s8)
    16b2:	0501                	addi	a0,a0,0
    16b4:	0319                	addi	t1,t1,6
    16b6:	0900                	addi	s0,sp,144
    16b8:	0010                	0x10
    16ba:	0501                	addi	a0,a0,0
    16bc:	031d                	addi	t1,t1,7
    16be:	0901                	addi	s2,s2,0
    16c0:	000c                	0xc
    16c2:	0501                	addi	a0,a0,0
    16c4:	032c                	addi	a1,sp,392
    16c6:	0900                	addi	s0,sp,144
    16c8:	0004                	0x4
    16ca:	0501                	addi	a0,a0,0
    16cc:	0315                	addi	t1,t1,5
    16ce:	0901                	addi	s2,s2,0
    16d0:	0004                	0x4
    16d2:	0501                	addi	a0,a0,0
    16d4:	0321                	addi	t1,t1,8
    16d6:	0904                	addi	s1,sp,144
    16d8:	0004                	0x4
    16da:	0501                	addi	a0,a0,0
    16dc:	0901031b          	addiw	t1,sp,144
    16e0:	0014                	0x14
    16e2:	0501                	addi	a0,a0,0
    16e4:	0319                	addi	t1,t1,6
    16e6:	0901                	addi	s2,s2,0
    16e8:	0004                	0x4
    16ea:	0501                	addi	a0,a0,0
    16ec:	031c                	addi	a5,sp,384
    16ee:	0901                	addi	s2,s2,0
    16f0:	0014                	0x14
    16f2:	0301                	addi	t1,t1,0
    16f4:	0901                	addi	s2,s2,0
    16f6:	000c                	0xc
    16f8:	0301                	addi	t1,t1,0
    16fa:	097d                	addi	s2,s2,31
    16fc:	000c                	0xc
    16fe:	0501                	addi	a0,a0,0
    1700:	031d                	addi	t1,t1,7
    1702:	0905                	addi	s2,s2,1
    1704:	000c                	0xc
    1706:	0501                	addi	a0,a0,0
    1708:	032c                	addi	a1,sp,392
    170a:	0900                	addi	s0,sp,144
    170c:	0004                	0x4
    170e:	0501                	addi	a0,a0,0
    1710:	0315                	addi	t1,t1,5
    1712:	0901                	addi	s2,s2,0
    1714:	0004                	0x4
    1716:	0501                	addi	a0,a0,0
    1718:	0325                	addi	t1,t1,9
    171a:	0904                	addi	s1,sp,144
    171c:	0004                	0x4
    171e:	0501                	addi	a0,a0,0
    1720:	031a                	slli	t1,t1,0x6
    1722:	0900                	addi	s0,sp,144
    1724:	0010                	0x10
    1726:	0501                	addi	a0,a0,0
    1728:	0315                	addi	t1,t1,5
    172a:	0901                	addi	s2,s2,0
    172c:	0004                	0x4
    172e:	0501                	addi	a0,a0,0
    1730:	0318                	addi	a4,sp,384
    1732:	0901                	addi	s2,s2,0
    1734:	0010                	0x10
    1736:	0501                	addi	a0,a0,0
    1738:	031d                	addi	t1,t1,7
    173a:	0901                	addi	s2,s2,0
    173c:	000c                	0xc
    173e:	0501                	addi	a0,a0,0
    1740:	032c                	addi	a1,sp,392
    1742:	0900                	addi	s0,sp,144
    1744:	0004                	0x4
    1746:	0501                	addi	a0,a0,0
    1748:	0315                	addi	t1,t1,5
    174a:	0901                	addi	s2,s2,0
    174c:	0004                	0x4
    174e:	0501                	addi	a0,a0,0
    1750:	0311                	addi	t1,t1,4
    1752:	0906                	slli	s2,s2,0x1
    1754:	0004                	0x4
    1756:	0501                	addi	a0,a0,0
    1758:	0310                	addi	a2,sp,384
    175a:	0900                	addi	s0,sp,144
    175c:	0008                	0x8
    175e:	0501                	addi	a0,a0,0
    1760:	0315                	addi	t1,t1,5
    1762:	0901                	addi	s2,s2,0
    1764:	000c                	0xc
    1766:	0501                	addi	a0,a0,0
    1768:	030d                	addi	t1,t1,3
    176a:	000c0903          	lb	s2,0(s8)
    176e:	0501                	addi	a0,a0,0
    1770:	0310                	addi	a2,sp,384
    1772:	0901                	addi	s2,s2,0
    1774:	0014                	0x14
    1776:	0501                	addi	a0,a0,0
    1778:	0315                	addi	t1,t1,5
    177a:	0978                	addi	a4,sp,156
    177c:	0010                	0x10
    177e:	0301                	addi	t1,t1,0
    1780:	7fb1                	lui	t6,0xfffec
    1782:	0409                	addi	s0,s0,2
    1784:	0100                	addi	s0,sp,128
    1786:	0c05                	addi	s8,s8,1
    1788:	0200                	addi	s0,sp,256
    178a:	0104                	addi	s1,sp,128
    178c:	0c090003          	lb	zero,192(s2)
    1790:	0100                	addi	s0,sp,128
    1792:	0900da03          	lhu	s4,144(ra)
    1796:	000c                	0xc
    1798:	0501                	addi	a0,a0,0
    179a:	0301                	addi	t1,t1,0
    179c:	0901                	addi	s2,s2,0
    179e:	0008                	0x8
    17a0:	0901                	addi	s2,s2,0
    17a2:	0014                	0x14
    17a4:	0100                	addi	s0,sp,128
    17a6:	0501                	addi	a0,a0,0
    17a8:	0020                	addi	s0,sp,8
    17aa:	0209                	addi	tp,tp,2
    17ac:	1b40                	addi	s0,sp,436
    17ae:	0020                	addi	s0,sp,8
    17b0:	ffe0                	sd	s0,248(a5)
    17b2:	ffff                	0xffff
    17b4:	0100e903          	lwu	s2,16(ra)
    17b8:	0905                	addi	s2,s2,1
    17ba:	30090103          	lb	sp,768(s2)
    17be:	0100                	addi	s0,sp,128
    17c0:	0505                	addi	a0,a0,1
    17c2:	04090203          	lb	tp,64(s2)
    17c6:	0100                	addi	s0,sp,128
    17c8:	0b05                	addi	s6,s6,1
    17ca:	14090103          	lb	sp,320(s2)
    17ce:	0100                	addi	s0,sp,128
    17d0:	0c05                	addi	s8,s8,1
    17d2:	20090203          	lb	tp,512(s2)
    17d6:	0100                	addi	s0,sp,128
    17d8:	0105                	addi	sp,sp,1
    17da:	04090103          	lb	sp,64(s2)
    17de:	0100                	addi	s0,sp,128
    17e0:	1409                	addi	s0,s0,-30
    17e2:	0000                	unimp
    17e4:	0101                	addi	sp,sp,0
    17e6:	0211                	addi	tp,tp,4
    17e8:	0000                	unimp
    17ea:	0005                	c.nop	1
    17ec:	0008                	0x8
    17ee:	00000033          	add	zero,zero,zero
    17f2:	0101                	addi	sp,sp,0
    17f4:	fb01                	bnez	a4,1704 <BASE_ADDR-0x801fe8fc>
    17f6:	0d0e                	slli	s10,s10,0x3
    17f8:	0100                	addi	s0,sp,128
    17fa:	0101                	addi	sp,sp,0
    17fc:	0001                	nop
    17fe:	0000                	unimp
    1800:	0001                	nop
    1802:	0100                	addi	s0,sp,128
    1804:	0101                	addi	sp,sp,0
    1806:	021f 0119 0000      	0x119021f
    180c:	0088                	addi	a0,sp,64
    180e:	0000                	unimp
    1810:	0102                	c.slli64	sp
    1812:	021f 030f 0153      	0x153030f021f
    1818:	0000                	unimp
    181a:	5300                	lw	s0,32(a4)
    181c:	0001                	nop
    181e:	0000                	unimp
    1820:	006c                	addi	a1,sp,12
    1822:	0000                	unimp
    1824:	0501                	addi	a0,a0,0
    1826:	0209000f          	0x209000f
    182a:	1bc0                	addi	s0,sp,500
    182c:	0020                	addi	s0,sp,8
    182e:	ffe0                	sd	s0,248(a5)
    1830:	ffff                	0xffff
    1832:	0518                	addi	a4,sp,640
    1834:	0314                	addi	a3,sp,384
    1836:	000c0903          	lb	s2,0(s8)
    183a:	0501                	addi	a0,a0,0
    183c:	0308                	addi	a0,sp,384
    183e:	0900                	addi	s0,sp,144
    1840:	000c                	0xc
    1842:	0501                	addi	a0,a0,0
    1844:	030e                	slli	t1,t1,0x3
    1846:	0901                	addi	s2,s2,0
    1848:	0004                	0x4
    184a:	0501                	addi	a0,a0,0
    184c:	0310                	addi	a2,sp,384
    184e:	0901                	addi	s2,s2,0
    1850:	0010                	0x10
    1852:	0501                	addi	a0,a0,0
    1854:	0309                	addi	t1,t1,2
    1856:	0900                	addi	s0,sp,144
    1858:	0008                	0x8
    185a:	0501                	addi	a0,a0,0
    185c:	09010323          	sb	a6,134(sp)
    1860:	0004                	0x4
    1862:	0501                	addi	a0,a0,0
    1864:	0320                	addi	s0,sp,392
    1866:	0900                	addi	s0,sp,144
    1868:	000c                	0xc
    186a:	0501                	addi	a0,a0,0
    186c:	031d                	addi	t1,t1,7
    186e:	0900                	addi	s0,sp,144
    1870:	0018                	0x18
    1872:	0501                	addi	a0,a0,0
    1874:	0329                	addi	t1,t1,10
    1876:	0900                	addi	s0,sp,144
    1878:	000c                	0xc
    187a:	0501                	addi	a0,a0,0
    187c:	0312                	slli	t1,t1,0x4
    187e:	0900                	addi	s0,sp,144
    1880:	000c                	0xc
    1882:	0301                	addi	t1,t1,0
    1884:	0901                	addi	s2,s2,0
    1886:	001c                	0x1c
    1888:	0501                	addi	a0,a0,0
    188a:	0310                	addi	a2,sp,384
    188c:	0900                	addi	s0,sp,144
    188e:	0018                	0x18
    1890:	0501                	addi	a0,a0,0
    1892:	0316                	slli	t1,t1,0x5
    1894:	0901                	addi	s2,s2,0
    1896:	0004                	0x4
    1898:	0501                	addi	a0,a0,0
    189a:	001e                	c.slli	zero,0x7
    189c:	0402                	c.slli64	s0
    189e:	0302                	c.slli64	t1
    18a0:	097d                	addi	s2,s2,31
    18a2:	0040                	addi	s0,sp,4
    18a4:	0501                	addi	a0,a0,0
    18a6:	04020017          	auipc	zero,0x4020
    18aa:	0301                	addi	t1,t1,0
    18ac:	0900                	addi	s0,sp,144
    18ae:	000c                	0xc
    18b0:	0501                	addi	a0,a0,0
    18b2:	0310                	addi	a2,sp,384
    18b4:	0906                	slli	s2,s2,0x1
    18b6:	0010                	0x10
    18b8:	0501                	addi	a0,a0,0
    18ba:	0309                	addi	t1,t1,2
    18bc:	0900                	addi	s0,sp,144
    18be:	0008                	0x8
    18c0:	0501                	addi	a0,a0,0
    18c2:	0018                	0x18
    18c4:	0402                	c.slli64	s0
    18c6:	09010303          	lb	t1,144(sp)
    18ca:	0004                	0x4
    18cc:	0501                	addi	a0,a0,0
    18ce:	0015                	c.nop	5
    18d0:	0402                	c.slli64	s0
    18d2:	09000303          	lb	t1,144(zero) # 90 <BASE_ADDR-0x801fff70>
    18d6:	000c                	0xc
    18d8:	0501                	addi	a0,a0,0
    18da:	0012                	c.slli	zero,0x4
    18dc:	0402                	c.slli64	s0
    18de:	09000303          	lb	t1,144(zero) # 90 <BASE_ADDR-0x801fff70>
    18e2:	0014                	0x14
    18e4:	0501                	addi	a0,a0,0
    18e6:	001f 0402 0303      	0x3030402001f
    18ec:	097f                	0x97f
    18ee:	0018                	0x18
    18f0:	0501                	addi	a0,a0,0
    18f2:	0018                	0x18
    18f4:	0402                	c.slli64	s0
    18f6:	0301                	addi	t1,t1,0
    18f8:	0900                	addi	s0,sp,144
    18fa:	000c                	0xc
    18fc:	0501                	addi	a0,a0,0
    18fe:	0310                	addi	a2,sp,384
    1900:	00100903          	lb	s2,1(zero) # 1 <BASE_ADDR-0x801fffff>
    1904:	0501                	addi	a0,a0,0
    1906:	0309                	addi	t1,t1,2
    1908:	0900                	addi	s0,sp,144
    190a:	0008                	0x8
    190c:	0501                	addi	a0,a0,0
    190e:	0018                	0x18
    1910:	0402                	c.slli64	s0
    1912:	09010303          	lb	t1,144(sp)
    1916:	0004                	0x4
    1918:	0501                	addi	a0,a0,0
    191a:	0015                	c.nop	5
    191c:	0402                	c.slli64	s0
    191e:	09000303          	lb	t1,144(zero) # 90 <BASE_ADDR-0x801fff70>
    1922:	000c                	0xc
    1924:	0501                	addi	a0,a0,0
    1926:	0024                	addi	s1,sp,8
    1928:	0402                	c.slli64	s0
    192a:	09000303          	lb	t1,144(zero) # 90 <BASE_ADDR-0x801fff70>
    192e:	0014                	0x14
    1930:	0501                	addi	a0,a0,0
    1932:	0021                	c.nop	8
    1934:	0402                	c.slli64	s0
    1936:	09000303          	lb	t1,144(zero) # 90 <BASE_ADDR-0x801fff70>
    193a:	000c                	0xc
    193c:	0501                	addi	a0,a0,0
    193e:	001e                	c.slli	zero,0x7
    1940:	0402                	c.slli64	s0
    1942:	09000303          	lb	t1,144(zero) # 90 <BASE_ADDR-0x801fff70>
    1946:	0014                	0x14
    1948:	0501                	addi	a0,a0,0
    194a:	0012                	c.slli	zero,0x4
    194c:	0402                	c.slli64	s0
    194e:	09000303          	lb	t1,144(zero) # 90 <BASE_ADDR-0x801fff70>
    1952:	0008                	0x8
    1954:	0501                	addi	a0,a0,0
    1956:	0020                	addi	s0,sp,8
    1958:	0402                	c.slli64	s0
    195a:	097f0303          	lb	t1,151(t5)
    195e:	0018                	0x18
    1960:	0501                	addi	a0,a0,0
    1962:	0018                	0x18
    1964:	0402                	c.slli64	s0
    1966:	0301                	addi	t1,t1,0
    1968:	0900                	addi	s0,sp,144
    196a:	000c                	0xc
    196c:	0501                	addi	a0,a0,0
    196e:	030e                	slli	t1,t1,0x3
    1970:	0904                	addi	s1,sp,144
    1972:	0010                	0x10
    1974:	0501                	addi	a0,a0,0
    1976:	0308                	addi	a0,sp,384
    1978:	00100903          	lb	s2,1(zero) # 1 <BASE_ADDR-0x801fffff>
    197c:	0501                	addi	a0,a0,0
    197e:	0304                	addi	s1,sp,384
    1980:	0900                	addi	s0,sp,144
    1982:	001c                	0x1c
    1984:	0501                	addi	a0,a0,0
    1986:	031c                	addi	a5,sp,384
    1988:	0902                	c.slli64	s2
    198a:	000c                	0xc
    198c:	0501                	addi	a0,a0,0
    198e:	09000313          	li	t1,144
    1992:	0014                	0x14
    1994:	0501                	addi	a0,a0,0
    1996:	032e                	slli	t1,t1,0xb
    1998:	0900                	addi	s0,sp,144
    199a:	0014                	0x14
    199c:	0501                	addi	a0,a0,0
    199e:	0325                	addi	t1,t1,9
    19a0:	0900                	addi	s0,sp,144
    19a2:	0014                	0x14
    19a4:	0501                	addi	a0,a0,0
    19a6:	0309                	addi	t1,t1,2
    19a8:	0900                	addi	s0,sp,144
    19aa:	0014                	0x14
    19ac:	0501                	addi	a0,a0,0
    19ae:	0322                	slli	t1,t1,0x8
    19b0:	0900                	addi	s0,sp,144
    19b2:	0014                	0x14
    19b4:	0501                	addi	a0,a0,0
    19b6:	0310                	addi	a2,sp,384
    19b8:	0900                	addi	s0,sp,144
    19ba:	0008                	0x8
    19bc:	0501                	addi	a0,a0,0
    19be:	09020303          	lb	t1,144(tp) # 90 <BASE_ADDR-0x801fff70>
    19c2:	0014                	0x14
    19c4:	0501                	addi	a0,a0,0
    19c6:	031c                	addi	a5,sp,384
    19c8:	0902                	c.slli64	s2
    19ca:	0020                	addi	s0,sp,8
    19cc:	0501                	addi	a0,a0,0
    19ce:	0315                	addi	t1,t1,5
    19d0:	0900                	addi	s0,sp,144
    19d2:	0014                	0x14
    19d4:	0501                	addi	a0,a0,0
    19d6:	030c                	addi	a1,sp,384
    19d8:	0900                	addi	s0,sp,144
    19da:	0014                	0x14
    19dc:	0501                	addi	a0,a0,0
    19de:	09000323          	sb	a6,134(zero) # 86 <BASE_ADDR-0x801fff7a>
    19e2:	0004                	0x4
    19e4:	0501                	addi	a0,a0,0
    19e6:	0328                	addi	a0,sp,392
    19e8:	0900                	addi	s0,sp,144
    19ea:	0008                	0x8
    19ec:	0501                	addi	a0,a0,0
    19ee:	0301                	addi	t1,t1,0
    19f0:	0901                	addi	s2,s2,0
    19f2:	0004                	0x4
    19f4:	0901                	addi	s2,s2,0
    19f6:	0010                	0x10
    19f8:	0100                	addi	s0,sp,128
    19fa:	a701                	j	20fa <BASE_ADDR-0x801fdf06>
    19fc:	0000                	unimp
    19fe:	0500                	addi	s0,sp,640
    1a00:	0800                	addi	s0,sp,16
    1a02:	3300                	fld	fs0,32(a4)
    1a04:	0000                	unimp
    1a06:	0100                	addi	s0,sp,128
    1a08:	0101                	addi	sp,sp,0
    1a0a:	000d0efb          	0xd0efb
    1a0e:	0101                	addi	sp,sp,0
    1a10:	0101                	addi	sp,sp,0
    1a12:	0000                	unimp
    1a14:	0100                	addi	s0,sp,128
    1a16:	0000                	unimp
    1a18:	0101                	addi	sp,sp,0
    1a1a:	1f01                	addi	t5,t5,-32
    1a1c:	1902                	slli	s2,s2,0x20
    1a1e:	0001                	nop
    1a20:	8800                	0x8800
    1a22:	0000                	unimp
    1a24:	0200                	addi	s0,sp,256
    1a26:	1f01                	addi	t5,t5,-32
    1a28:	0f02                	c.slli64	t5
    1a2a:	00015a03          	lhu	s4,0(sp)
    1a2e:	0000                	unimp
    1a30:	015a                	slli	sp,sp,0x16
    1a32:	0000                	unimp
    1a34:	6c00                	ld	s0,24(s0)
    1a36:	0000                	unimp
    1a38:	0100                	addi	s0,sp,128
    1a3a:	2a05                	addiw	s4,s4,1
    1a3c:	0900                	addi	s0,sp,144
    1a3e:	d002                	sw	zero,32(sp)
    1a40:	201e                	fld	ft0,448(sp)
    1a42:	e000                	sd	s0,0(s0)
    1a44:	ffff                	0xffff
    1a46:	14ff                	0x14ff
    1a48:	0b05                	addi	s6,s6,1
    1a4a:	1c090103          	lb	sp,448(s2)
    1a4e:	0100                	addi	s0,sp,128
    1a50:	1105                	addi	sp,sp,-31
    1a52:	08090103          	lb	sp,128(s2)
    1a56:	0100                	addi	s0,sp,128
    1a58:	0505                	addi	a0,a0,1
    1a5a:	04090003          	lb	zero,64(s2)
    1a5e:	0100                	addi	s0,sp,128
    1a60:	0d05                	addi	s10,s10,1
    1a62:	0200                	addi	s0,sp,256
    1a64:	0304                	addi	s1,sp,384
    1a66:	04090103          	lb	sp,64(s2)
    1a6a:	0100                	addi	s0,sp,128
    1a6c:	1105                	addi	sp,sp,-31
    1a6e:	0200                	addi	s0,sp,256
    1a70:	0304                	addi	s1,sp,384
    1a72:	0c090003          	lb	zero,192(s2)
    1a76:	0100                	addi	s0,sp,128
    1a78:	1f05                	addi	t5,t5,-31
    1a7a:	0200                	addi	s0,sp,256
    1a7c:	0304                	addi	s1,sp,384
    1a7e:	0c097f03          	0xc097f03
    1a82:	0100                	addi	s0,sp,128
    1a84:	1a05                	addi	s4,s4,-31
    1a86:	0200                	addi	s0,sp,256
    1a88:	0104                	addi	s1,sp,128
    1a8a:	0c090003          	lb	zero,192(s2)
    1a8e:	0100                	addi	s0,sp,128
    1a90:	0c05                	addi	s8,s8,1
    1a92:	0c090303          	lb	t1,192(s2)
    1a96:	0100                	addi	s0,sp,128
    1a98:	0105                	addi	sp,sp,1
    1a9a:	04090103          	lb	sp,64(s2)
    1a9e:	0100                	addi	s0,sp,128
    1aa0:	1009                	c.nop	-30
    1aa2:	0000                	unimp
    1aa4:	0101                	addi	sp,sp,0

Disassembly of section .debug_str:

0000000000000000 <.debug_str>:
   0:	6f6c                	ld	a1,216(a4)
   2:	676e                	ld	a4,216(sp)
   4:	7520                	ld	s0,104(a0)
   6:	736e                	ld	t1,248(sp)
   8:	6769                	lui	a4,0x1a
   a:	656e                	ld	a0,216(sp)
   c:	2064                	fld	fs1,192(s0)
   e:	6e69                	lui	t3,0x1a
  10:	0074                	addi	a3,sp,12
  12:	6f6c                	ld	a1,216(a4)
  14:	676e                	ld	a4,216(sp)
  16:	6920                	ld	s0,80(a0)
  18:	746e                	ld	s0,248(sp)
  1a:	7300                	ld	s0,32(a4)
  1c:	6962                	ld	s2,24(sp)
  1e:	655f 6163 6c6c      	0x6c6c6163655f
  24:	4700                	lw	s0,8(a4)
  26:	554e                	lw	a0,240(sp)
  28:	4320                	lw	s0,64(a4)
  2a:	3731                	addiw	a4,a4,-20
  2c:	3120                	fld	fs0,96(a0)
  2e:	2e31                	addiw	t3,t3,12
  30:	2e31                	addiw	t3,t3,12
  32:	2030                	fld	fa2,64(s0)
  34:	6d2d                	lui	s10,0xb
  36:	7261                	lui	tp,0xffff8
  38:	723d6863          	bltu	s10,gp,768 <BASE_ADDR-0x801ff898>
  3c:	3676                	fld	fa2,376(sp)
  3e:	6934                	ld	a3,80(a0)
  40:	616d                	addi	sp,sp,240
  42:	6466                	ld	s0,88(sp)
  44:	2d20                	fld	fs0,88(a0)
  46:	616d                	addi	sp,sp,240
  48:	6962                	ld	s2,24(sp)
  4a:	6c3d                	lui	s8,0xf
  4c:	3670                	fld	fa2,232(a2)
  4e:	2034                	fld	fa3,64(s0)
  50:	6d2d                	lui	s10,0xb
  52:	646f6d63          	bltu	t5,t1,6ac <BASE_ADDR-0x801ff954>
  56:	6c65                	lui	s8,0x19
  58:	6d3d                	lui	s10,0xf
  5a:	6465                	lui	s0,0x19
  5c:	6e61                	lui	t3,0x18
  5e:	2079                	0x2079
  60:	6d2d                	lui	s10,0xb
  62:	7574                	ld	a3,232(a0)
  64:	656e                	ld	a0,216(sp)
  66:	723d                	lui	tp,0xfffef
  68:	656b636f          	jal	t1,b66be <BASE_ADDR-0x80149942>
  6c:	2074                	fld	fa3,192(s0)
  6e:	6d2d                	lui	s10,0xb
  70:	7261                	lui	tp,0xffff8
  72:	723d6863          	bltu	s10,gp,7a2 <BASE_ADDR-0x801ff85e>
  76:	3676                	fld	fa2,376(sp)
  78:	6934                	ld	a3,80(a0)
  7a:	616d                	addi	sp,sp,240
  7c:	6466                	ld	s0,88(sp)
  7e:	2d20                	fld	fs0,88(a0)
  80:	662d2067          	0x662d2067
  84:	6f6e                	ld	t5,216(sp)
  86:	622d                	lui	tp,0xb
  88:	6975                	lui	s2,0x1d
  8a:	746c                	ld	a1,232(s0)
  8c:	6e69                	lui	t3,0x1a
  8e:	2d20                	fld	fs0,88(a0)
  90:	6666                	ld	a2,88(sp)
  92:	6e75                	lui	t3,0x1d
  94:	6f697463          	bgeu	s2,s6,77c <BASE_ADDR-0x801ff884>
  98:	2d6e                	fld	fs10,216(sp)
  9a:	74636573          	csrrsi	a0,0x746,6
  9e:	6f69                	lui	t5,0x1a
  a0:	736e                	ld	t1,248(sp)
  a2:	2d20                	fld	fs0,88(a0)
  a4:	6466                	ld	s0,88(sp)
  a6:	7461                	lui	s0,0xffff8
  a8:	2d61                	addiw	s10,s10,24
  aa:	74636573          	csrrsi	a0,0x746,6
  ae:	6f69                	lui	t5,0x1a
  b0:	736e                	ld	t1,248(sp)
  b2:	6e00                	ld	s0,24(a2)
  b4:	7865                	lui	a6,0xffff9
  b6:	0074                	addi	a3,sp,12
  b8:	6975                	lui	s2,0x1d
  ba:	746e                	ld	s0,248(sp)
  bc:	3436                	fld	fs0,360(sp)
  be:	6500                	ld	s0,8(a0)
  c0:	7272                	ld	tp,312(sp)
  c2:	6700726f          	jal	tp,7732 <BASE_ADDR-0x801f88ce>
  c6:	7465                	lui	s0,0xffff9
  c8:	635f 6379 656c      	0x656c6379635f
  ce:	49540073          	0x49540073
  d2:	454d                	li	a0,19
  d4:	434f4c43          	fmadd.d	fs8,ft10,fs4,fs0,rmm
  d8:	6c63004b          	0x6c63004b
  dc:	5f6b636f          	jal	t1,b66d2 <BASE_ADDR-0x8014992e>
  e0:	5f746573          	csrrsi	a0,0x5f7,8
  e4:	656e                	ld	a0,216(sp)
  e6:	7478                	ld	a4,232(s0)
  e8:	655f 6576 746e      	0x746e6576655f
  ee:	7300                	ld	s0,32(a4)
  f0:	6962                	ld	s2,24(sp)
  f2:	6572                	ld	a0,280(sp)
  f4:	0074                	addi	a3,sp,12
  f6:	6e65                	lui	t3,0x19
  f8:	7274                	ld	a3,224(a2)
  fa:	2e79                	addiw	t3,t3,30
  fc:	4d2f0053          	0x4d2f0053
 100:	4f79                	li	t5,30
 102:	736f2f53          	0x736f2f53
 106:	3132                	fld	ft2,296(sp)
 108:	6166                	ld	sp,88(sp)
 10a:	6c6c                	ld	a1,216(s0)
 10c:	732d                	lui	t1,0xfffeb
 10e:	7574                	ld	a3,232(a0)
 110:	6372732f          	0x6372732f
 114:	62616c2f          	0x62616c2f
 118:	2f31                	addiw	t5,t5,12
 11a:	7261                	lui	tp,0xffff8
 11c:	722f6863          	bltu	t5,sp,84c <BASE_ADDR-0x801ff7b4>
 120:	7369                	lui	t1,0xffffa
 122:	6b2f7663          	bgeu	t5,s2,7ce <BASE_ADDR-0x801ff832>
 126:	7265                	lui	tp,0xffff9
 128:	656e                	ld	a0,216(sp)
 12a:	006c                	addi	a1,sp,12
 12c:	20554e47          	fmsub.s	ft8,fa0,ft5,ft4,rmm
 130:	5341                	li	t1,-16
 132:	3220                	fld	fs0,96(a2)
 134:	332e                	fld	ft6,232(sp)
 136:	65680037          	lui	zero,0x65680
 13a:	6461                	lui	s0,0x18
 13c:	532e                	lw	t1,232(sp)
 13e:	6b00                	ld	s0,16(a4)
 140:	6c61                	lui	s8,0x18
 142:	6f6c                	ld	a1,216(a4)
 144:	6d6b0063          	beq	s6,s6,804 <BASE_ADDR-0x801ff7fc>
 148:	6d65                	lui	s10,0x19
 14a:	5f00                	lw	s0,56(a4)
 14c:	6b65                	lui	s6,0x19
 14e:	7265                	lui	tp,0xffff9
 150:	656e                	ld	a0,216(sp)
 152:	006c                	addi	a1,sp,12
 154:	6461                	lui	s0,0x18
 156:	7264                	ld	s1,224(a2)
 158:	6b00                	ld	s0,16(a4)
 15a:	7266                	ld	tp,120(sp)
 15c:	6565                	lui	a0,0x19
 15e:	6172                	ld	sp,280(sp)
 160:	676e                	ld	a4,216(sp)
 162:	0065                	c.nop	25
 164:	7266                	ld	tp,120(sp)
 166:	6565                	lui	a0,0x19
 168:	696c                	ld	a1,208(a0)
 16a:	6b007473          	csrrci	s0,0x6b0,0
 16e:	7266                	ld	tp,120(sp)
 170:	6565                	lui	a0,0x19
 172:	6d00                	ld	s0,24(a0)
 174:	5f6d                	li	t5,-5
 176:	6e69                	lui	t3,0x1a
 178:	7469                	lui	s0,0xffffa
 17a:	7000                	ld	s0,32(s0)
 17c:	6972                	ld	s2,280(sp)
 17e:	746e                	ld	s0,248(sp)
 180:	7473006b          	0x7473006b
 184:	7261                	lui	tp,0xffff8
 186:	0074                	addi	a3,sp,12
 188:	656d                	lui	a0,0x1b
 18a:	736d                	lui	t1,0xffffb
 18c:	7465                	lui	s0,0xffff9
 18e:	7300                	ld	s0,32(a4)
 190:	6174                	ld	a3,192(a0)
 192:	6574                	ld	a3,200(a0)
 194:	5f00                	lw	s0,56(a4)
 196:	645f 6d75 796d      	0x796d6d75645f
 19c:	7400                	ld	s0,40(s0)
 19e:	7361                	lui	t1,0xffff8
 1a0:	6174006b          	0x6174006b
 1a4:	695f6b73          	csrrsi	s6,0x695,30
 1a8:	696e                	ld	s2,216(sp)
 1aa:	0074                	addi	a3,sp,12
 1ac:	7375                	lui	t1,0xffffd
 1ae:	7265                	lui	tp,0xffff9
 1b0:	735f 0070 6469      	0x64690070735f
 1b6:	656c                	ld	a1,200(a0)
 1b8:	6c00                	ld	s0,24(s0)
 1ba:	7361                	lui	t1,0xffff8
 1bc:	5f74                	lw	a3,124(a4)
 1be:	6e756f63          	bltu	a0,t2,8bc <BASE_ADDR-0x801ff744>
 1c2:	6574                	ld	a3,200(a0)
 1c4:	0072                	c.slli	zero,0x1c
 1c6:	6174                	ld	a3,192(a0)
 1c8:	735f6b73          	csrrsi	s6,0x735,30
 1cc:	7274                	ld	a3,224(a2)
 1ce:	6375                	lui	t1,0x1d
 1d0:	0074                	addi	a3,sp,12
 1d2:	6874                	ld	a3,208(s0)
 1d4:	6572                	ld	a0,280(sp)
 1d6:	6461                	lui	s0,0x18
 1d8:	7000                	ld	s0,32(s0)
 1da:	6972                	ld	s2,280(sp)
 1dc:	7469726f          	jal	tp,97922 <BASE_ADDR-0x801686de>
 1e0:	0079                	c.nop	30
 1e2:	7561                	lui	a0,0xffff8
 1e4:	6f74                	ld	a3,216(a4)
 1e6:	695f 636e 6c5f      	0x6c5f636e695f
 1ec:	6c61636f          	jal	t1,168b2 <BASE_ADDR-0x801e974e>
 1f0:	765f 7261 7400      	0x74007261765f
 1f6:	7268                	ld	a0,224(a2)
 1f8:	6165                	addi	sp,sp,112
 1fa:	5f64                	lw	s1,124(a4)
 1fc:	6e69                	lui	t3,0x1a
 1fe:	6f66                	ld	t5,88(sp)
 200:	6d00                	ld	s0,24(a0)
 202:	7861                	lui	a6,0xffff8
 204:	6e756f43          	fmadd.q	ft10,fa0,ft7,fa3,unknown
 208:	6574                	ld	a3,200(a0)
 20a:	0072                	c.slli	zero,0x1c
 20c:	65686373          	csrrsi	t1,0x656,16
 210:	7564                	ld	s1,232(a0)
 212:	656c                	ld	a1,200(a0)
 214:	7400                	ld	s0,40(s0)
 216:	7268                	ld	a0,224(a2)
 218:	6165                	addi	sp,sp,112
 21a:	5f64                	lw	s1,124(a4)
 21c:	75727473          	csrrci	s0,0x757,4
 220:	63007463          	bgeu	zero,a6,848 <BASE_ADDR-0x801ff7b8>
 224:	7275                	lui	tp,0xffffd
 226:	6572                	ld	a0,280(sp)
 228:	746e                	ld	s0,248(sp)
 22a:	6400                	ld	s0,8(s0)
 22c:	69745f6f          	jal	t5,460c2 <BASE_ADDR-0x801b9f3e>
 230:	656d                	lui	a0,0x1b
 232:	0072                	c.slli	zero,0x1c
 234:	616d                	addi	sp,sp,240
 236:	4378                	lw	a4,68(a4)
 238:	746e756f          	jal	a0,e797e <BASE_ADDR-0x80118682>
 23c:	7265                	lui	tp,0xffff9
 23e:	6e49                	lui	t3,0x12
 240:	6564                	ld	s1,200(a0)
 242:	0078                	addi	a4,sp,12
 244:	5f5f 7773 7469      	0x746977735f5f
 24a:	745f6863          	bltu	t5,t0,99a <BASE_ADDR-0x801ff666>
 24e:	7270006f          	j	1174 <BASE_ADDR-0x801fee8c>
 252:	7665                	lui	a2,0xffff9
 254:	7200                	ld	s0,32(a2)
 256:	6e61                	lui	t3,0x18
 258:	0064                	addi	s1,sp,12
 25a:	6e72656b          	0x6e72656b
 25e:	6c65                	lui	s8,0x19
 260:	735f 0070 7261      	0x72610070735f
 266:	61003067          	0x61003067
 26a:	6772                	ld	a4,280(sp)
 26c:	0031                	c.nop	12
 26e:	7261                	lui	tp,0xffff8
 270:	61003267          	0x61003267
 274:	6772                	ld	a4,280(sp)
 276:	72610033          	0x72610033
 27a:	61003467          	0x61003467
 27e:	6772                	ld	a4,280(sp)
 280:	0035                	c.nop	13
 282:	75616373          	csrrsi	t1,0x756,2
 286:	73006573          	csrrsi	a0,0x730,0
 28a:	7065                	c.lui	zero,0xffff9
 28c:	72740063          	beq	s0,t2,9ac <BASE_ADDR-0x801ff654>
 290:	7061                	c.lui	zero,0xffff8
 292:	685f 6e61 6c64      	0x6c646e61685f
 298:	7265                	lui	tp,0xffff9
 29a:	5f00                	lw	s0,56(a4)
 29c:	74616473          	csrrsi	s0,0x746,2
 2a0:	0061                	c.nop	24
 2a2:	735f 7362 0073      	0x737362735f
 2a8:	6176                	ld	sp,344(sp)
 2aa:	735f 3376 0039      	0x393376735f
 2b0:	655f 7362 0073      	0x737362655f
 2b6:	735f 6574 7478      	0x74786574735f
 2bc:	6500                	ld	s0,8(a0)
 2be:	7261                	lui	tp,0xffff8
 2c0:	796c                	ld	a1,240(a0)
 2c2:	705f 7467 6c62      	0x6c627467705f
 2c8:	7600                	ld	s0,40(a2)
 2ca:	5f61                	li	t5,-8
 2cc:	6e69                	lui	t3,0x1a
 2ce:	6564                	ld	s1,200(a0)
 2d0:	3278                	fld	fa4,224(a2)
 2d2:	7200                	ld	s0,32(a2)
 2d4:	7365                	lui	t1,0xffff9
 2d6:	7265                	lui	tp,0xffff9
 2d8:	6576                	ld	a0,344(sp)
 2da:	0064                	addi	s1,sp,12
 2dc:	7470                	ld	a2,232(s0)
 2de:	5f65                	li	t5,-7
 2e0:	6461                	lui	s0,0x18
 2e2:	7264                	ld	s1,224(a2)
 2e4:	7365                	lui	t1,0xffff9
 2e6:	70700073          	0x70700073
 2ea:	5f6e                	lw	t5,248(sp)
 2ec:	6968                	ld	a0,208(a0)
 2ee:	34346867          	0x34346867
 2f2:	7000                	ld	s0,32(s0)
 2f4:	6c627467          	0x6c627467
 2f8:	6e45                	lui	t3,0x11
 2fa:	7274                	ld	a3,224(a2)
 2fc:	5f79                	li	t5,-2
 2fe:	6962                	ld	s2,24(sp)
 300:	0074                	addi	a3,sp,12
 302:	6e65                	lui	t3,0x19
 304:	7274                	ld	a3,224(a2)
 306:	3179                	addiw	sp,sp,-2
 308:	7000                	ld	s0,32(s0)
 30a:	7265                	lui	tp,0xffff9
 30c:	006d                	c.nop	27
 30e:	726f6873          	csrrsi	a6,0x726,30
 312:	2074                	fld	fa3,192(s0)
 314:	6e75                	lui	t3,0x1d
 316:	6e676973          	csrrsi	s2,0x6e6,14
 31a:	6465                	lui	s0,0x19
 31c:	6920                	ld	s0,80(a0)
 31e:	746e                	ld	s0,248(sp)
 320:	5f00                	lw	s0,56(a4)
 322:	7265                	lui	tp,0xffff9
 324:	7461646f          	jal	s0,16a6a <BASE_ADDR-0x801e9596>
 328:	0061                	c.nop	24
 32a:	75746573          	csrrsi	a0,0x757,8
 32e:	5f70                	lw	a2,124(a4)
 330:	6d76                	ld	s10,344(sp)
 332:	665f 6e69 6c61      	0x6c616e69665f
 338:	7600                	ld	s0,40(a2)
 33a:	5f61                	li	t5,-8
 33c:	6e69                	lui	t3,0x1a
 33e:	6564                	ld	s1,200(a0)
 340:	3178                	fld	fa4,224(a0)
 342:	6700                	ld	s0,8(a4)
 344:	7465                	lui	s0,0xffff9
 346:	6850                	ld	a2,144(s0)
 348:	7379                	lui	t1,0xffffe
 34a:	6369                	lui	t1,0x1a
 34c:	6c61                	lui	s8,0x18
 34e:	6441                	lui	s0,0x10
 350:	7264                	ld	s1,224(a2)
 352:	7365                	lui	t1,0xffff9
 354:	69680073          	0x69680073
 358:	625f6867          	0x625f6867
 35c:	7469                	lui	s0,0xffffa
 35e:	7600                	ld	s0,40(a2)
 360:	5f61                	li	t5,-8
 362:	6962                	ld	s2,24(sp)
 364:	0074                	addi	a3,sp,12
 366:	6e65                	lui	t3,0x19
 368:	7274                	ld	a3,224(a2)
 36a:	3279                	addiw	tp,tp,-2
 36c:	5f00                	lw	s0,56(a4)
 36e:	646f7273          	csrrci	tp,0x646,30
 372:	7461                	lui	s0,0xffff8
 374:	0061                	c.nop	24
 376:	6968                	ld	a0,208(a0)
 378:	625f6867          	0x625f6867
 37c:	7000746f          	jal	s0,7a7c <BASE_ADDR-0x801f8584>
 380:	5f61                	li	t5,-8
 382:	6e69                	lui	t3,0x1a
 384:	6564                	ld	s1,200(a0)
 386:	0078                	addi	a4,sp,12
 388:	655f 6164 6174      	0x61746164655f
 38e:	7000                	ld	s0,32(s0)
 390:	5f61                	li	t5,-8
 392:	39337673          	csrrci	a2,0x393,6
 396:	7600                	ld	s0,40(a2)
 398:	6e70                	ld	a2,216(a2)
 39a:	0030                	addi	a2,sp,8
 39c:	7076                	0x7076
 39e:	316e                	fld	ft2,248(sp)
 3a0:	7600                	ld	s0,40(a2)
 3a2:	6e70                	ld	a2,216(a2)
 3a4:	0032                	c.slli	zero,0xc
 3a6:	655f 6574 7478      	0x74786574655f
 3ac:	7300                	ld	s0,32(a4)
 3ae:	7465                	lui	s0,0xffff9
 3b0:	7075                	c.lui	zero,0xffffd
 3b2:	765f 006d 6176      	0x6176006d765f
 3b8:	6c5f 6d69 7469      	0x74696d696c5f
 3be:	6f00                	ld	s0,24(a4)
 3c0:	6666                	ld	a2,88(sp)
 3c2:	00746573          	csrrsi	a0,0x7,8
 3c6:	61657263          	bgeu	a0,s6,9ca <BASE_ADDR-0x801ff636>
 3ca:	6574                	ld	a3,200(a0)
 3cc:	6d5f 7061 6970      	0x697070616d5f
 3d2:	676e                	ld	a4,216(sp)
 3d4:	7300                	ld	s0,32(a4)
 3d6:	7461                	lui	s0,0xffff8
 3d8:	5f70                	lw	a2,124(a4)
 3da:	6176                	ld	sp,344(sp)
 3dc:	756c                	ld	a1,232(a0)
 3de:	0065                	c.nop	25
 3e0:	70617773          	csrrci	a4,0x706,2
 3e4:	6570                	ld	a2,200(a0)
 3e6:	5f72                	lw	t5,60(sp)
 3e8:	6770                	ld	a2,200(a4)
 3ea:	645f 7269 6400      	0x64007269645f
 3f0:	506e776f          	jal	a4,e78f6 <BASE_ADDR-0x8011870a>
 3f4:	6c627467          	0x6c627467
 3f8:	6c41                	lui	s8,0x10
 3fa:	6f6c                	ld	a1,216(a4)
 3fc:	67700063          	beq	zero,s7,a5c <BASE_ADDR-0x801ff5a4>
 400:	6274                	ld	a3,192(a2)
 402:	5f6c                	lw	a1,124(a4)
 404:	7300                	ld	s0,32(a4)
 406:	6174                	ld	a3,192(a0)
 408:	7472                	ld	s0,312(sp)
 40a:	6b5f 7265 656e      	0x656e72656b5f
 410:	006c                	addi	a1,sp,12
 412:	6574                	ld	a3,200(a0)
 414:	70007473          	csrrci	s0,0x700,0
 418:	7475                	lui	s0,0xffffd
 41a:	75700073          	0x75700073
 41e:	6974                	ld	a3,208(a0)
 420:	6800                	ld	s0,16(s0)
 422:	7865                	lui	a6,0xffff9
 424:	6964                	ld	s1,208(a0)
 426:	73746967          	0x73746967
 42a:	7300                	ld	s0,32(a4)
 42c:	7a69                	lui	s4,0xffffa
 42e:	5f65                	li	t5,-7
 430:	0074                	addi	a3,sp,12
 432:	7570                	ld	a2,232(a0)
 434:	6374                	ld	a3,192(a4)
 436:	0068                	addi	a0,sp,12
 438:	5f5f 7562 6c69      	0x6c6975625f5f
 43e:	6974                	ld	a3,208(a0)
 440:	5f6e                	lw	t5,248(sp)
 442:	6176                	ld	sp,344(sp)
 444:	6c5f 7369 0074      	0x7473696c5f
 44a:	7076                	0x7076
 44c:	6972                	ld	s2,280(sp)
 44e:	746e                	ld	s0,248(sp)
 450:	6d66                	ld	s10,88(sp)
 452:	0074                	addi	a3,sp,12
 454:	6168                	ld	a0,192(a0)
 456:	666c                	ld	a1,200(a2)
 458:	7962                	ld	s2,56(sp)
 45a:	6574                	ld	a3,200(a0)
 45c:	7000                	ld	s0,32(s0)
 45e:	7475                	lui	s0,0xffffd
 460:	6e690063          	beq	s2,t1,b40 <BASE_ADDR-0x801ff4c0>
 464:	665f 726f 616d      	0x616d726f665f
 46a:	0074                	addi	a3,sp,12
 46c:	6568                	ld	a0,200(a0)
 46e:	6378                	ld	a4,192(a4)
 470:	6168                	ld	a0,192(a0)
 472:	0072                	c.slli	zero,0x1c
 474:	6f6c                	ld	a1,216(a4)
 476:	676e                	ld	a4,216(sp)
 478:	7261                	lui	tp,0xffff8
 47a:	65640067          	jr	1622(s0) # ffffffffffffd656 <_ebss+0x1fffdf46b6>
 47e:	61686363          	bltu	a6,s6,a84 <BASE_ADDR-0x801ff57c>
 482:	0072                	c.slli	zero,0x1c
 484:	6962                	ld	s2,24(sp)
 486:	7374                	ld	a3,224(a4)
 488:	6900                	ld	s0,16(a0)
 48a:	696e                	ld	s2,216(sp)
 48c:	6974                	ld	a3,208(a0)
 48e:	6c61                	lui	s8,0x18
 490:	7a69                	lui	s4,0xffffa
 492:	0065                	c.nop	25
 494:	74736463          	bltu	t1,t2,bdc <BASE_ADDR-0x801ff424>
	...

Disassembly of section .debug_line_str:

0000000000000000 <.debug_line_str>:
   0:	636f6c63          	bltu	t5,s6,638 <BASE_ADDR-0x801ff9c8>
   4:	00632e6b          	0x632e6b
   8:	4f794d2f          	0x4f794d2f
   c:	736f2f53          	0x736f2f53
  10:	3132                	fld	ft2,296(sp)
  12:	6166                	ld	sp,88(sp)
  14:	6c6c                	ld	a1,216(s0)
  16:	732d                	lui	t1,0xfffeb
  18:	7574                	ld	a3,232(a0)
  1a:	6372732f          	0x6372732f
  1e:	62616c2f          	0x62616c2f
  22:	2f31                	addiw	t5,t5,12
  24:	7261                	lui	tp,0xffff8
  26:	722f6863          	bltu	t5,sp,756 <BASE_ADDR-0x801ff8aa>
  2a:	7369                	lui	t1,0xffffa
  2c:	6b2f7663          	bgeu	t5,s2,6d8 <BASE_ADDR-0x801ff928>
  30:	7265                	lui	tp,0xffff9
  32:	656e                	ld	a0,216(sp)
  34:	006c                	addi	a1,sp,12
  36:	4f794d2f          	0x4f794d2f
  3a:	736f2f53          	0x736f2f53
  3e:	3132                	fld	ft2,296(sp)
  40:	6166                	ld	sp,88(sp)
  42:	6c6c                	ld	a1,216(s0)
  44:	732d                	lui	t1,0xfffeb
  46:	7574                	ld	a3,232(a0)
  48:	6372732f          	0x6372732f
  4c:	62616c2f          	0x62616c2f
  50:	2f31                	addiw	t5,t5,12
  52:	7261                	lui	tp,0xffff8
  54:	722f6863          	bltu	t5,sp,784 <BASE_ADDR-0x801ff87c>
  58:	7369                	lui	t1,0xffffa
  5a:	692f7663          	bgeu	t5,s2,6e6 <BASE_ADDR-0x801ff91a>
  5e:	636e                	ld	t1,216(sp)
  60:	756c                	ld	a1,232(a0)
  62:	6564                	ld	s1,200(a0)
  64:	7300                	ld	s0,32(a4)
  66:	6962                	ld	s2,24(sp)
  68:	682e                	ld	a6,200(sp)
  6a:	6b00                	ld	s0,16(a4)
  6c:	7974                	ld	a3,240(a0)
  6e:	6570                	ld	a2,200(a0)
  70:	00682e73          	csrrs	t3,0x6,a6
  74:	6e65                	lui	t3,0x19
  76:	7274                	ld	a3,224(a2)
  78:	2e79                	addiw	t3,t3,30
  7a:	65680053          	0x65680053
  7e:	6461                	lui	s0,0x18
  80:	532e                	lw	t1,232(sp)
  82:	6d00                	ld	s0,24(a0)
  84:	2e6d                	addiw	t3,t3,27
  86:	4d2f0063          	beq	t5,s2,546 <BASE_ADDR-0x801ffaba>
  8a:	4f79                	li	t5,30
  8c:	736f2f53          	0x736f2f53
  90:	3132                	fld	ft2,296(sp)
  92:	6166                	ld	sp,88(sp)
  94:	6c6c                	ld	a1,216(s0)
  96:	732d                	lui	t1,0xfffeb
  98:	7574                	ld	a3,232(a0)
  9a:	6372732f          	0x6372732f
  9e:	62616c2f          	0x62616c2f
  a2:	2f31                	addiw	t5,t5,12
  a4:	6e69                	lui	t3,0x1a
  a6:	64756c63          	bltu	a0,t2,6fe <BASE_ADDR-0x801ff902>
  aa:	0065                	c.nop	25
  ac:	6d6d                	lui	s10,0x1b
  ae:	682e                	ld	a6,200(sp)
  b0:	7000                	ld	s0,32(s0)
  b2:	6972                	ld	s2,280(sp)
  b4:	746e                	ld	s0,248(sp)
  b6:	00682e6b          	0x682e6b
  ba:	69727473          	csrrci	s0,0x697,4
  be:	676e                	ld	a4,216(sp)
  c0:	682e                	ld	a6,200(sp)
  c2:	7000                	ld	s0,32(s0)
  c4:	6f72                	ld	t5,280(sp)
  c6:	00632e63          	0x632e63
  ca:	7270                	ld	a2,224(a2)
  cc:	682e636f          	jal	t1,e674e <BASE_ADDR-0x801198b2>
  d0:	7200                	ld	s0,32(a2)
  d2:	6e61                	lui	t3,0x18
  d4:	2e64                	fld	fs1,216(a2)
  d6:	0068                	addi	a0,sp,12
  d8:	2e696273          	csrrsi	tp,0x2e6,18
  dc:	72740063          	beq	s0,t2,7fc <BASE_ADDR-0x801ff804>
  e0:	7061                	c.lui	zero,0xffff8
  e2:	632e                	ld	t1,200(sp)
  e4:	7600                	ld	s0,40(a2)
  e6:	2e6d                	addiw	t3,t3,27
  e8:	4d2f0063          	beq	t5,s2,5a8 <BASE_ADDR-0x801ffa58>
  ec:	4f79                	li	t5,30
  ee:	736f2f53          	0x736f2f53
  f2:	3132                	fld	ft2,296(sp)
  f4:	6166                	ld	sp,88(sp)
  f6:	6c6c                	ld	a1,216(s0)
  f8:	732d                	lui	t1,0xfffeb
  fa:	7574                	ld	a3,232(a0)
  fc:	6372732f          	0x6372732f
 100:	62616c2f          	0x62616c2f
 104:	2f31                	addiw	t5,t5,12
 106:	6e69                	lui	t3,0x1a
 108:	7469                	lui	s0,0xffffa
 10a:	6d00                	ld	s0,24(a0)
 10c:	6961                	lui	s2,0x18
 10e:	2e6e                	fld	ft8,216(sp)
 110:	65740063          	beq	s0,s7,750 <BASE_ADDR-0x801ff8b0>
 114:	632e7473          	csrrci	s0,0x632,28
 118:	2f00                	fld	fs0,24(a4)
 11a:	794d                	lui	s2,0xffff3
 11c:	6f2f534f          	fnmadd.q	ft6,ft10,fs2,fa3,unknown
 120:	66313273          	csrrc	tp,0x663,sp
 124:	6c61                	lui	s8,0x18
 126:	2d6c                	fld	fa1,216(a0)
 128:	2f757473          	csrrci	s0,0x2f7,10
 12c:	2f637273          	csrrci	tp,0x2f6,6
 130:	616c                	ld	a1,192(a0)
 132:	3162                	fld	ft2,56(sp)
 134:	62696c2f          	0x62696c2f
 138:	7000                	ld	s0,32(s0)
 13a:	6972                	ld	s2,280(sp)
 13c:	746e                	ld	s0,248(sp)
 13e:	632e                	ld	t1,200(sp)
 140:	7000                	ld	s0,32(s0)
 142:	6972                	ld	s2,280(sp)
 144:	746e                	ld	s0,248(sp)
 146:	00632e6b          	0x632e6b
 14a:	64647473          	csrrci	s0,0x646,8
 14e:	6665                	lui	a2,0x19
 150:	682e                	ld	a6,200(sp)
 152:	7200                	ld	s0,32(a2)
 154:	6e61                	lui	t3,0x18
 156:	2e64                	fld	fs1,216(a2)
 158:	74730063          	beq	t1,t2,898 <BASE_ADDR-0x801ff768>
 15c:	6972                	ld	s2,280(sp)
 15e:	676e                	ld	a4,216(sp)
 160:	632e                	ld	t1,200(sp)
	...

Disassembly of section .comment:

0000000000000000 <.comment>:
   0:	3a434347          	fmsub.d	ft6,ft6,ft4,ft7,rmm
   4:	2820                	fld	fs0,80(s0)
   6:	36393567          	0x36393567
   a:	6234                	ld	a3,64(a2)
   c:	6335                	lui	t1,0xd
   e:	3764                	fld	fs1,232(a4)
  10:	3732                	fld	fa4,296(sp)
  12:	2029                	0x2029
  14:	3131                	addiw	sp,sp,-20
  16:	312e                	fld	ft2,232(sp)
  18:	302e                	fld	ft0,232(sp)
	...

Disassembly of section .riscv.attributes:

0000000000000000 <.riscv.attributes>:
   0:	3341                	addiw	t1,t1,-16
   2:	0000                	unimp
   4:	7200                	ld	s0,32(a2)
   6:	7369                	lui	t1,0xffffa
   8:	01007663          	bgeu	zero,a6,14 <BASE_ADDR-0x801fffec>
   c:	0029                	c.nop	10
   e:	0000                	unimp
  10:	1004                	addi	s1,sp,32
  12:	7205                	lui	tp,0xfffe1
  14:	3676                	fld	fa2,376(sp)
  16:	6934                	ld	a3,80(a0)
  18:	7032                	0x7032
  1a:	5f30                	lw	a2,120(a4)
  1c:	326d                	addiw	tp,tp,-5
  1e:	3070                	fld	fa2,224(s0)
  20:	615f 7032 5f30      	0x5f307032615f
  26:	3266                	fld	ft4,120(sp)
  28:	3070                	fld	fa2,224(s0)
  2a:	645f 7032 0030      	0x307032645f
  30:	0108                	addi	a0,sp,128
  32:	0b0a                	slli	s6,s6,0x2

Disassembly of section .debug_frame:

0000000000000000 <.debug_frame>:
   0:	000c                	0xc
   2:	0000                	unimp
   4:	ffff                	0xffff
   6:	ffff                	0xffff
   8:	7c010003          	lb	zero,1984(sp)
   c:	0d01                	addi	s10,s10,0
   e:	0002                	c.slli64	zero
  10:	002c                	addi	a1,sp,8
  12:	0000                	unimp
  14:	0000                	unimp
  16:	0000                	unimp
  18:	0408                	addi	a0,sp,512
  1a:	0020                	addi	s0,sp,8
  1c:	ffe0                	sd	s0,248(a5)
  1e:	ffff                	0xffff
  20:	0028                	addi	a0,sp,8
  22:	0000                	unimp
  24:	0000                	unimp
  26:	0000                	unimp
  28:	0e44                	addi	s1,sp,788
  2a:	4420                	lw	s0,72(s0)
  2c:	0288                	addi	a0,sp,320
  2e:	0c44                	addi	s1,sp,532
  30:	0008                	0x8
  32:	c854                	sw	a3,20(s0)
  34:	020c                	addi	a1,sp,256
  36:	4420                	lw	s0,72(s0)
  38:	000e                	c.slli	zero,0x3
  3a:	0000                	unimp
  3c:	0000                	unimp
  3e:	0000                	unimp
  40:	002c                	addi	a1,sp,8
  42:	0000                	unimp
  44:	0000                	unimp
  46:	0000                	unimp
  48:	0430                	addi	a2,sp,520
  4a:	0020                	addi	s0,sp,8
  4c:	ffe0                	sd	s0,248(a5)
  4e:	ffff                	0xffff
  50:	0064                	addi	s1,sp,12
  52:	0000                	unimp
  54:	0000                	unimp
  56:	0000                	unimp
  58:	0e44                	addi	s1,sp,788
  5a:	4820                	lw	s0,80(s0)
  5c:	0281                	addi	t0,t0,0
  5e:	0488                	addi	a0,sp,576
  60:	0c44                	addi	s1,sp,532
  62:	0008                	0x8
  64:	4802                	lw	a6,0(sp)
  66:	44c1                	li	s1,16
  68:	0cc8                	addi	a0,sp,596
  6a:	2002                	fld	ft0,0(sp)
  6c:	0e44                	addi	s1,sp,788
  6e:	0000                	unimp
  70:	000c                	0xc
  72:	0000                	unimp
  74:	ffff                	0xffff
  76:	ffff                	0xffff
  78:	7c010003          	lb	zero,1984(sp)
  7c:	0d01                	addi	s10,s10,0
  7e:	0002                	c.slli64	zero
  80:	002c                	addi	a1,sp,8
  82:	0000                	unimp
  84:	0070                	addi	a2,sp,12
  86:	0000                	unimp
  88:	0494                	addi	a3,sp,576
  8a:	0020                	addi	s0,sp,8
  8c:	ffe0                	sd	s0,248(a5)
  8e:	ffff                	0xffff
  90:	005c                	addi	a5,sp,4
  92:	0000                	unimp
  94:	0000                	unimp
  96:	0000                	unimp
  98:	0e44                	addi	s1,sp,788
  9a:	4820                	lw	s0,80(s0)
  9c:	0281                	addi	t0,t0,0
  9e:	0488                	addi	a0,sp,576
  a0:	0c44                	addi	s1,sp,532
  a2:	0008                	0x8
  a4:	4002                	0x4002
  a6:	44c1                	li	s1,16
  a8:	0cc8                	addi	a0,sp,596
  aa:	2002                	fld	ft0,0(sp)
  ac:	0e44                	addi	s1,sp,788
  ae:	0000                	unimp
  b0:	002c                	addi	a1,sp,8
  b2:	0000                	unimp
  b4:	0070                	addi	a2,sp,12
  b6:	0000                	unimp
  b8:	04f0                	addi	a2,sp,588
  ba:	0020                	addi	s0,sp,8
  bc:	ffe0                	sd	s0,248(a5)
  be:	ffff                	0xffff
  c0:	0078                	addi	a4,sp,12
  c2:	0000                	unimp
  c4:	0000                	unimp
  c6:	0000                	unimp
  c8:	0e44                	addi	s1,sp,788
  ca:	4830                	lw	a2,80(s0)
  cc:	0281                	addi	t0,t0,0
  ce:	0488                	addi	a0,sp,576
  d0:	0c44                	addi	s1,sp,532
  d2:	0008                	0x8
  d4:	5c02                	lw	s8,32(sp)
  d6:	44c1                	li	s1,16
  d8:	0cc8                	addi	a0,sp,596
  da:	3002                	fld	ft0,32(sp)
  dc:	0e44                	addi	s1,sp,788
  de:	0000                	unimp
  e0:	002c                	addi	a1,sp,8
  e2:	0000                	unimp
  e4:	0070                	addi	a2,sp,12
  e6:	0000                	unimp
  e8:	0568                	addi	a0,sp,652
  ea:	0020                	addi	s0,sp,8
  ec:	ffe0                	sd	s0,248(a5)
  ee:	ffff                	0xffff
  f0:	0080                	addi	s0,sp,64
  f2:	0000                	unimp
  f4:	0000                	unimp
  f6:	0000                	unimp
  f8:	0e44                	addi	s1,sp,788
  fa:	4830                	lw	a2,80(s0)
  fc:	0281                	addi	t0,t0,0
  fe:	0488                	addi	a0,sp,576
 100:	0c44                	addi	s1,sp,532
 102:	0008                	0x8
 104:	6402                	ld	s0,0(sp)
 106:	44c1                	li	s1,16
 108:	0cc8                	addi	a0,sp,596
 10a:	3002                	fld	ft0,32(sp)
 10c:	0e44                	addi	s1,sp,788
 10e:	0000                	unimp
 110:	002c                	addi	a1,sp,8
 112:	0000                	unimp
 114:	0070                	addi	a2,sp,12
 116:	0000                	unimp
 118:	05e8                	addi	a0,sp,716
 11a:	0020                	addi	s0,sp,8
 11c:	ffe0                	sd	s0,248(a5)
 11e:	ffff                	0xffff
 120:	0044                	addi	s1,sp,4
 122:	0000                	unimp
 124:	0000                	unimp
 126:	0000                	unimp
 128:	0e44                	addi	s1,sp,788
 12a:	4810                	lw	a2,16(s0)
 12c:	0281                	addi	t0,t0,0
 12e:	0488                	addi	a0,sp,576
 130:	0c44                	addi	s1,sp,532
 132:	0008                	0x8
 134:	c168                	sw	a0,68(a0)
 136:	c844                	sw	s1,20(s0)
 138:	020c                	addi	a1,sp,256
 13a:	4410                	lw	a2,8(s0)
 13c:	000e                	c.slli	zero,0x3
 13e:	0000                	unimp
 140:	000c                	0xc
 142:	0000                	unimp
 144:	ffff                	0xffff
 146:	ffff                	0xffff
 148:	7c010003          	lb	zero,1984(sp)
 14c:	0d01                	addi	s10,s10,0
 14e:	0002                	c.slli64	zero
 150:	0034                	addi	a3,sp,8
 152:	0000                	unimp
 154:	0140                	addi	s0,sp,132
 156:	0000                	unimp
 158:	062c                	addi	a1,sp,776
 15a:	0020                	addi	s0,sp,8
 15c:	ffe0                	sd	s0,248(a5)
 15e:	ffff                	0xffff
 160:	01ec                	addi	a1,sp,204
 162:	0000                	unimp
 164:	0000                	unimp
 166:	0000                	unimp
 168:	0e44                	addi	s1,sp,788
 16a:	4c30                	lw	a2,88(s0)
 16c:	0281                	addi	t0,t0,0
 16e:	0488                	addi	a0,sp,576
 170:	0689                	addi	a3,a3,2
 172:	0c44                	addi	s1,sp,532
 174:	0008                	0x8
 176:	c101c803          	lbu	a6,-1008(gp)
 17a:	c844                	sw	s1,20(s0)
 17c:	020c                	addi	a1,sp,256
 17e:	4430                	lw	a2,72(s0)
 180:	44c9                	li	s1,18
 182:	000e                	c.slli	zero,0x3
 184:	0000                	unimp
 186:	0000                	unimp
 188:	002c                	addi	a1,sp,8
 18a:	0000                	unimp
 18c:	0140                	addi	s0,sp,132
 18e:	0000                	unimp
 190:	0818                	addi	a4,sp,16
 192:	0020                	addi	s0,sp,8
 194:	ffe0                	sd	s0,248(a5)
 196:	ffff                	0xffff
 198:	0068                	addi	a0,sp,12
 19a:	0000                	unimp
 19c:	0000                	unimp
 19e:	0000                	unimp
 1a0:	0e44                	addi	s1,sp,788
 1a2:	4830                	lw	a2,80(s0)
 1a4:	0281                	addi	t0,t0,0
 1a6:	0488                	addi	a0,sp,576
 1a8:	0c44                	addi	s1,sp,532
 1aa:	0008                	0x8
 1ac:	4c02                	lw	s8,0(sp)
 1ae:	44c1                	li	s1,16
 1b0:	0cc8                	addi	a0,sp,596
 1b2:	3002                	fld	ft0,32(sp)
 1b4:	0e44                	addi	s1,sp,788
 1b6:	0000                	unimp
 1b8:	002c                	addi	a1,sp,8
 1ba:	0000                	unimp
 1bc:	0140                	addi	s0,sp,132
 1be:	0000                	unimp
 1c0:	0880                	addi	s0,sp,80
 1c2:	0020                	addi	s0,sp,8
 1c4:	ffe0                	sd	s0,248(a5)
 1c6:	ffff                	0xffff
 1c8:	007c                	addi	a5,sp,12
 1ca:	0000                	unimp
 1cc:	0000                	unimp
 1ce:	0000                	unimp
 1d0:	0e44                	addi	s1,sp,788
 1d2:	4810                	lw	a2,16(s0)
 1d4:	0281                	addi	t0,t0,0
 1d6:	0488                	addi	a0,sp,576
 1d8:	0c44                	addi	s1,sp,532
 1da:	0008                	0x8
 1dc:	6002                	0x6002
 1de:	44c1                	li	s1,16
 1e0:	0cc8                	addi	a0,sp,596
 1e2:	1002                	c.slli	zero,0x20
 1e4:	0e44                	addi	s1,sp,788
 1e6:	0000                	unimp
 1e8:	002c                	addi	a1,sp,8
 1ea:	0000                	unimp
 1ec:	0140                	addi	s0,sp,132
 1ee:	0000                	unimp
 1f0:	08fc                	addi	a5,sp,92
 1f2:	0020                	addi	s0,sp,8
 1f4:	ffe0                	sd	s0,248(a5)
 1f6:	ffff                	0xffff
 1f8:	0220                	addi	s0,sp,264
 1fa:	0000                	unimp
 1fc:	0000                	unimp
 1fe:	0000                	unimp
 200:	0e44                	addi	s1,sp,788
 202:	4820                	lw	s0,80(s0)
 204:	0281                	addi	t0,t0,0
 206:	0488                	addi	a0,sp,576
 208:	0c44                	addi	s1,sp,532
 20a:	0008                	0x8
 20c:	c1020403          	lb	s0,-1008(tp) # fffffffffffe0c10 <_ebss+0x1fffdd7c70>
 210:	c844                	sw	s1,20(s0)
 212:	020c                	addi	a1,sp,256
 214:	4420                	lw	s0,72(s0)
 216:	000e                	c.slli	zero,0x3
 218:	0024                	addi	s1,sp,8
 21a:	0000                	unimp
 21c:	0140                	addi	s0,sp,132
 21e:	0000                	unimp
 220:	0b1c                	addi	a5,sp,400
 222:	0020                	addi	s0,sp,8
 224:	ffe0                	sd	s0,248(a5)
 226:	ffff                	0xffff
 228:	00a0                	addi	s0,sp,72
 22a:	0000                	unimp
 22c:	0000                	unimp
 22e:	0000                	unimp
 230:	0e44                	addi	s1,sp,788
 232:	4830                	lw	a2,80(s0)
 234:	0281                	addi	t0,t0,0
 236:	0488                	addi	a0,sp,576
 238:	0c44                	addi	s1,sp,532
 23a:	0008                	0x8
 23c:	0000                	unimp
 23e:	0000                	unimp
 240:	000c                	0xc
 242:	0000                	unimp
 244:	ffff                	0xffff
 246:	ffff                	0xffff
 248:	7c010003          	lb	zero,1984(sp)
 24c:	0d01                	addi	s10,s10,0
 24e:	0002                	c.slli64	zero
 250:	002c                	addi	a1,sp,8
 252:	0000                	unimp
 254:	0240                	addi	s0,sp,260
 256:	0000                	unimp
 258:	0bbc                	addi	a5,sp,472
 25a:	0020                	addi	s0,sp,8
 25c:	ffe0                	sd	s0,248(a5)
 25e:	ffff                	0xffff
 260:	0078                	addi	a4,sp,12
 262:	0000                	unimp
 264:	0000                	unimp
 266:	0000                	unimp
 268:	0e44                	addi	s1,sp,788
 26a:	4460                	lw	s0,76(s0)
 26c:	0288                	addi	a0,sp,320
 26e:	0c44                	addi	s1,sp,532
 270:	0008                	0x8
 272:	6402                	ld	s0,0(sp)
 274:	0cc8                	addi	a0,sp,596
 276:	6002                	0x6002
 278:	0e44                	addi	s1,sp,788
 27a:	0000                	unimp
 27c:	0000                	unimp
 27e:	0000                	unimp
 280:	000c                	0xc
 282:	0000                	unimp
 284:	ffff                	0xffff
 286:	ffff                	0xffff
 288:	7c010003          	lb	zero,1984(sp)
 28c:	0d01                	addi	s10,s10,0
 28e:	0002                	c.slli64	zero
 290:	002c                	addi	a1,sp,8
 292:	0000                	unimp
 294:	0280                	addi	s0,sp,320
 296:	0000                	unimp
 298:	0c34                	addi	a3,sp,536
 29a:	0020                	addi	s0,sp,8
 29c:	ffe0                	sd	s0,248(a5)
 29e:	ffff                	0xffff
 2a0:	0070                	addi	a2,sp,12
 2a2:	0000                	unimp
 2a4:	0000                	unimp
 2a6:	0000                	unimp
 2a8:	0e44                	addi	s1,sp,788
 2aa:	4820                	lw	s0,80(s0)
 2ac:	0281                	addi	t0,t0,0
 2ae:	0488                	addi	a0,sp,576
 2b0:	0c44                	addi	s1,sp,532
 2b2:	0008                	0x8
 2b4:	5402                	lw	s0,32(sp)
 2b6:	44c1                	li	s1,16
 2b8:	0cc8                	addi	a0,sp,596
 2ba:	2002                	fld	ft0,0(sp)
 2bc:	0e44                	addi	s1,sp,788
 2be:	0000                	unimp
 2c0:	000c                	0xc
 2c2:	0000                	unimp
 2c4:	ffff                	0xffff
 2c6:	ffff                	0xffff
 2c8:	7c010003          	lb	zero,1984(sp)
 2cc:	0d01                	addi	s10,s10,0
 2ce:	0002                	c.slli64	zero
 2d0:	002c                	addi	a1,sp,8
 2d2:	0000                	unimp
 2d4:	02c0                	addi	s0,sp,324
 2d6:	0000                	unimp
 2d8:	0ca4                	addi	s1,sp,600
 2da:	0020                	addi	s0,sp,8
 2dc:	ffe0                	sd	s0,248(a5)
 2de:	ffff                	0xffff
 2e0:	030c                	addi	a1,sp,384
 2e2:	0000                	unimp
 2e4:	0000                	unimp
 2e6:	0000                	unimp
 2e8:	0e44                	addi	s1,sp,788
 2ea:	4860                	lw	s0,84(s0)
 2ec:	0281                	addi	t0,t0,0
 2ee:	0488                	addi	a0,sp,576
 2f0:	0c44                	addi	s1,sp,532
 2f2:	0008                	0x8
 2f4:	c102f003          	0xc102f003
 2f8:	c844                	sw	s1,20(s0)
 2fa:	020c                	addi	a1,sp,256
 2fc:	4460                	lw	s0,76(s0)
 2fe:	000e                	c.slli	zero,0x3
 300:	002c                	addi	a1,sp,8
 302:	0000                	unimp
 304:	02c0                	addi	s0,sp,324
 306:	0000                	unimp
 308:	0fb0                	addi	a2,sp,984
 30a:	0020                	addi	s0,sp,8
 30c:	ffe0                	sd	s0,248(a5)
 30e:	ffff                	0xffff
 310:	01a4                	addi	s1,sp,200
 312:	0000                	unimp
 314:	0000                	unimp
 316:	0000                	unimp
 318:	0e44                	addi	s1,sp,788
 31a:	4860                	lw	s0,84(s0)
 31c:	0281                	addi	t0,t0,0
 31e:	0488                	addi	a0,sp,576
 320:	0c44                	addi	s1,sp,532
 322:	0008                	0x8
 324:	c1018803          	lb	a6,-1008(gp)
 328:	c844                	sw	s1,20(s0)
 32a:	020c                	addi	a1,sp,256
 32c:	4460                	lw	s0,76(s0)
 32e:	000e                	c.slli	zero,0x3
 330:	002c                	addi	a1,sp,8
 332:	0000                	unimp
 334:	02c0                	addi	s0,sp,324
 336:	0000                	unimp
 338:	1154                	addi	a3,sp,164
 33a:	0020                	addi	s0,sp,8
 33c:	ffe0                	sd	s0,248(a5)
 33e:	ffff                	0xffff
 340:	00b8                	addi	a4,sp,72
 342:	0000                	unimp
 344:	0000                	unimp
 346:	0000                	unimp
 348:	0e44                	addi	s1,sp,788
 34a:	4850                	lw	a2,20(s0)
 34c:	0281                	addi	t0,t0,0
 34e:	0488                	addi	a0,sp,576
 350:	0c44                	addi	s1,sp,532
 352:	0008                	0x8
 354:	9c02                	jalr	s8
 356:	44c1                	li	s1,16
 358:	0cc8                	addi	a0,sp,596
 35a:	5002                	0x5002
 35c:	0e44                	addi	s1,sp,788
 35e:	0000                	unimp
 360:	002c                	addi	a1,sp,8
 362:	0000                	unimp
 364:	02c0                	addi	s0,sp,324
 366:	0000                	unimp
 368:	120c                	addi	a1,sp,288
 36a:	0020                	addi	s0,sp,8
 36c:	ffe0                	sd	s0,248(a5)
 36e:	ffff                	0xffff
 370:	00d8                	addi	a4,sp,68
 372:	0000                	unimp
 374:	0000                	unimp
 376:	0000                	unimp
 378:	0e44                	addi	s1,sp,788
 37a:	4850                	lw	a2,20(s0)
 37c:	0281                	addi	t0,t0,0
 37e:	0488                	addi	a0,sp,576
 380:	0c44                	addi	s1,sp,532
 382:	0008                	0x8
 384:	bc02                	fsd	ft0,56(sp)
 386:	44c1                	li	s1,16
 388:	0cc8                	addi	a0,sp,596
 38a:	5002                	0x5002
 38c:	0e44                	addi	s1,sp,788
 38e:	0000                	unimp
 390:	002c                	addi	a1,sp,8
 392:	0000                	unimp
 394:	02c0                	addi	s0,sp,324
 396:	0000                	unimp
 398:	12e4                	addi	s1,sp,364
 39a:	0020                	addi	s0,sp,8
 39c:	ffe0                	sd	s0,248(a5)
 39e:	ffff                	0xffff
 3a0:	00dc                	addi	a5,sp,68
 3a2:	0000                	unimp
 3a4:	0000                	unimp
 3a6:	0000                	unimp
 3a8:	0e44                	addi	s1,sp,788
 3aa:	4860                	lw	s0,84(s0)
 3ac:	0281                	addi	t0,t0,0
 3ae:	0488                	addi	a0,sp,576
 3b0:	0c44                	addi	s1,sp,532
 3b2:	0008                	0x8
 3b4:	c002                	sw	zero,0(sp)
 3b6:	44c1                	li	s1,16
 3b8:	0cc8                	addi	a0,sp,596
 3ba:	6002                	0x6002
 3bc:	0e44                	addi	s1,sp,788
 3be:	0000                	unimp
 3c0:	000c                	0xc
 3c2:	0000                	unimp
 3c4:	ffff                	0xffff
 3c6:	ffff                	0xffff
 3c8:	7c010003          	lb	zero,1984(sp)
 3cc:	0d01                	addi	s10,s10,0
 3ce:	0002                	c.slli64	zero
 3d0:	002c                	addi	a1,sp,8
 3d2:	0000                	unimp
 3d4:	03c0                	addi	s0,sp,452
 3d6:	0000                	unimp
 3d8:	13c0                	addi	s0,sp,484
 3da:	0020                	addi	s0,sp,8
 3dc:	ffe0                	sd	s0,248(a5)
 3de:	ffff                	0xffff
 3e0:	0048                	addi	a0,sp,4
 3e2:	0000                	unimp
 3e4:	0000                	unimp
 3e6:	0000                	unimp
 3e8:	0e44                	addi	s1,sp,788
 3ea:	4810                	lw	a2,16(s0)
 3ec:	0281                	addi	t0,t0,0
 3ee:	0488                	addi	a0,sp,576
 3f0:	0c44                	addi	s1,sp,532
 3f2:	0008                	0x8
 3f4:	c16c                	sw	a1,68(a0)
 3f6:	c844                	sw	s1,20(s0)
 3f8:	020c                	addi	a1,sp,256
 3fa:	4410                	lw	a2,8(s0)
 3fc:	000e                	c.slli	zero,0x3
 3fe:	0000                	unimp
 400:	000c                	0xc
 402:	0000                	unimp
 404:	ffff                	0xffff
 406:	ffff                	0xffff
 408:	7c010003          	lb	zero,1984(sp)
 40c:	0d01                	addi	s10,s10,0
 40e:	0002                	c.slli64	zero
 410:	0024                	addi	s1,sp,8
 412:	0000                	unimp
 414:	0400                	addi	s0,sp,512
 416:	0000                	unimp
 418:	1408                	addi	a0,sp,544
 41a:	0020                	addi	s0,sp,8
 41c:	ffe0                	sd	s0,248(a5)
 41e:	ffff                	0xffff
 420:	0050                	addi	a2,sp,4
 422:	0000                	unimp
 424:	0000                	unimp
 426:	0000                	unimp
 428:	0e44                	addi	s1,sp,788
 42a:	4820                	lw	s0,80(s0)
 42c:	0281                	addi	t0,t0,0
 42e:	0488                	addi	a0,sp,576
 430:	0c44                	addi	s1,sp,532
 432:	0008                	0x8
 434:	0000                	unimp
 436:	0000                	unimp
 438:	000c                	0xc
 43a:	0000                	unimp
 43c:	ffff                	0xffff
 43e:	ffff                	0xffff
 440:	7c010003          	lb	zero,1984(sp)
 444:	0d01                	addi	s10,s10,0
 446:	0002                	c.slli64	zero
 448:	002c                	addi	a1,sp,8
 44a:	0000                	unimp
 44c:	0438                	addi	a4,sp,520
 44e:	0000                	unimp
 450:	1458                	addi	a4,sp,548
 452:	0020                	addi	s0,sp,8
 454:	ffe0                	sd	s0,248(a5)
 456:	ffff                	0xffff
 458:	0074                	addi	a3,sp,12
 45a:	0000                	unimp
 45c:	0000                	unimp
 45e:	0000                	unimp
 460:	0e44                	addi	s1,sp,788
 462:	4820                	lw	s0,80(s0)
 464:	0281                	addi	t0,t0,0
 466:	0488                	addi	a0,sp,576
 468:	0c44                	addi	s1,sp,532
 46a:	0008                	0x8
 46c:	5802                	lw	a6,32(sp)
 46e:	44c1                	li	s1,16
 470:	0cc8                	addi	a0,sp,596
 472:	2002                	fld	ft0,0(sp)
 474:	0e44                	addi	s1,sp,788
 476:	0000                	unimp
 478:	002c                	addi	a1,sp,8
 47a:	0000                	unimp
 47c:	0438                	addi	a4,sp,520
 47e:	0000                	unimp
 480:	14cc                	addi	a1,sp,612
 482:	0020                	addi	s0,sp,8
 484:	ffe0                	sd	s0,248(a5)
 486:	ffff                	0xffff
 488:	0148                	addi	a0,sp,132
 48a:	0000                	unimp
 48c:	0000                	unimp
 48e:	0000                	unimp
 490:	0e44                	addi	s1,sp,788
 492:	4840                	lw	s0,20(s0)
 494:	0281                	addi	t0,t0,0
 496:	0488                	addi	a0,sp,576
 498:	0c44                	addi	s1,sp,532
 49a:	0008                	0x8
 49c:	c1012c03          	lw	s8,-1008(sp)
 4a0:	c844                	sw	s1,20(s0)
 4a2:	020c                	addi	a1,sp,256
 4a4:	4440                	lw	s0,12(s0)
 4a6:	000e                	c.slli	zero,0x3
 4a8:	000c                	0xc
 4aa:	0000                	unimp
 4ac:	ffff                	0xffff
 4ae:	ffff                	0xffff
 4b0:	7c010003          	lb	zero,1984(sp)
 4b4:	0d01                	addi	s10,s10,0
 4b6:	0002                	c.slli64	zero
 4b8:	002c                	addi	a1,sp,8
 4ba:	0000                	unimp
 4bc:	04a8                	addi	a0,sp,584
 4be:	0000                	unimp
 4c0:	1614                	addi	a3,sp,800
 4c2:	0020                	addi	s0,sp,8
 4c4:	ffe0                	sd	s0,248(a5)
 4c6:	ffff                	0xffff
 4c8:	0050                	addi	a2,sp,4
 4ca:	0000                	unimp
 4cc:	0000                	unimp
 4ce:	0000                	unimp
 4d0:	0e44                	addi	s1,sp,788
 4d2:	4820                	lw	s0,80(s0)
 4d4:	0281                	addi	t0,t0,0
 4d6:	0488                	addi	a0,sp,576
 4d8:	0c44                	addi	s1,sp,532
 4da:	0008                	0x8
 4dc:	c174                	sw	a3,68(a0)
 4de:	c844                	sw	s1,20(s0)
 4e0:	020c                	addi	a1,sp,256
 4e2:	4420                	lw	s0,72(s0)
 4e4:	000e                	c.slli	zero,0x3
 4e6:	0000                	unimp
 4e8:	0034                	addi	a3,sp,8
 4ea:	0000                	unimp
 4ec:	04a8                	addi	a0,sp,584
 4ee:	0000                	unimp
 4f0:	1664                	addi	s1,sp,812
 4f2:	0020                	addi	s0,sp,8
 4f4:	ffe0                	sd	s0,248(a5)
 4f6:	ffff                	0xffff
 4f8:	04dc                	addi	a5,sp,580
 4fa:	0000                	unimp
 4fc:	0000                	unimp
 4fe:	0000                	unimp
 500:	0e44                	addi	s1,sp,788
 502:	01e0                	addi	s0,sp,204
 504:	8148                	0x8148
 506:	8802                	jr	a6
 508:	4404                	lw	s1,8(s0)
 50a:	080c                	addi	a1,sp,16
 50c:	0300                	addi	s0,sp,384
 50e:	04c0                	addi	s0,sp,580
 510:	44c1                	li	s1,16
 512:	0cc8                	addi	a0,sp,596
 514:	e002                	sd	zero,0(sp)
 516:	4401                	li	s0,0
 518:	000e                	c.slli	zero,0x3
 51a:	0000                	unimp
 51c:	0000                	unimp
 51e:	0000                	unimp
 520:	002c                	addi	a1,sp,8
 522:	0000                	unimp
 524:	04a8                	addi	a0,sp,584
 526:	0000                	unimp
 528:	1b40                	addi	s0,sp,436
 52a:	0020                	addi	s0,sp,8
 52c:	ffe0                	sd	s0,248(a5)
 52e:	ffff                	0xffff
 530:	0080                	addi	s0,sp,64
 532:	0000                	unimp
 534:	0000                	unimp
 536:	0000                	unimp
 538:	0e44                	addi	s1,sp,788
 53a:	4870                	lw	a2,84(s0)
 53c:	1281                	addi	t0,t0,-32
 53e:	1488                	addi	a0,sp,608
 540:	0c44                	addi	s1,sp,532
 542:	4008                	lw	a0,0(s0)
 544:	6402                	ld	s0,0(sp)
 546:	44c1                	li	s1,16
 548:	0cc8                	addi	a0,sp,596
 54a:	7002                	0x7002
 54c:	0e44                	addi	s1,sp,788
 54e:	0000                	unimp
 550:	000c                	0xc
 552:	0000                	unimp
 554:	ffff                	0xffff
 556:	ffff                	0xffff
 558:	7c010003          	lb	zero,1984(sp)
 55c:	0d01                	addi	s10,s10,0
 55e:	0002                	c.slli64	zero
 560:	002c                	addi	a1,sp,8
 562:	0000                	unimp
 564:	0550                	addi	a2,sp,644
 566:	0000                	unimp
 568:	1bc0                	addi	s0,sp,500
 56a:	0020                	addi	s0,sp,8
 56c:	ffe0                	sd	s0,248(a5)
 56e:	ffff                	0xffff
 570:	0310                	addi	a2,sp,384
 572:	0000                	unimp
 574:	0000                	unimp
 576:	0000                	unimp
 578:	0e44                	addi	s1,sp,788
 57a:	4420                	lw	s0,72(s0)
 57c:	0288                	addi	a0,sp,320
 57e:	0c44                	addi	s1,sp,532
 580:	0008                	0x8
 582:	c802fc03          	0xc802fc03
 586:	020c                	addi	a1,sp,256
 588:	4420                	lw	s0,72(s0)
 58a:	000e                	c.slli	zero,0x3
 58c:	0000                	unimp
 58e:	0000                	unimp
 590:	000c                	0xc
 592:	0000                	unimp
 594:	ffff                	0xffff
 596:	ffff                	0xffff
 598:	7c010003          	lb	zero,1984(sp)
 59c:	0d01                	addi	s10,s10,0
 59e:	0002                	c.slli64	zero
 5a0:	002c                	addi	a1,sp,8
 5a2:	0000                	unimp
 5a4:	0590                	addi	a2,sp,704
 5a6:	0000                	unimp
 5a8:	1ed0                	addi	a2,sp,884
 5aa:	0020                	addi	s0,sp,8
 5ac:	ffe0                	sd	s0,248(a5)
 5ae:	ffff                	0xffff
 5b0:	0070                	addi	a2,sp,12
 5b2:	0000                	unimp
 5b4:	0000                	unimp
 5b6:	0000                	unimp
 5b8:	0e44                	addi	s1,sp,788
 5ba:	4440                	lw	s0,12(s0)
 5bc:	0288                	addi	a0,sp,320
 5be:	0c44                	addi	s1,sp,532
 5c0:	0008                	0x8
 5c2:	5c02                	lw	s8,32(sp)
 5c4:	0cc8                	addi	a0,sp,596
 5c6:	4002                	0x4002
 5c8:	0e44                	addi	s1,sp,788
 5ca:	0000                	unimp
 5cc:	0000                	unimp
	...
